ccopy_reg
_reconstructor
p1
(cfeedparser
FeedParserDict
p2
c__builtin__
dict
p3
(dp4
S'feed'
p5
g1
(g2
g3
(dp6
S'dc_source'
p7
Vhttps://newyork.craigslist.org/search/stp?format=rss
p8
sS'subtitle'
p9
V
sS'author'
p10
Vrobot@craigslist.org
p11
sS'links'
p12
(lp13
g1
(g2
g3
(dp14
S'href'
p15
Vhttps://newyork.craigslist.org/search/stp
p16
sS'type'
p17
Vtext/html
p18
sS'rel'
p19
Valternate
p20
stRp21
asS'rdf_seq'
p22
V
sS'link'
p23
g16
sS'authors'
p24
(lp25
g1
(g2
g3
(dp26
S'email'
p27
g11
stRp28
asS'rights_detail'
p29
g1
(g2
g3
(dp30
S'base'
p31
Vhttps://newyork.craigslist.org/search/stp?format=rss
p32
sg17
Vtext/plain
p33
sS'language'
p34
NsS'value'
p35
Vcopyright 2017 craiglist
p36
stRp37
sS'publisher_detail'
p38
g1
(g2
g3
(dp39
g27
Vrobot@craigslist.org
p40
stRp41
sS'author_detail'
p42
g28
sS'sy_updatebase'
p43
V2017-08-24T01:58:41-04:00
p44
sS'publisher'
p45
g40
sS'dc_type'
p46
VCollection
p47
sg34
Ven-us
p48
sS'title'
p49
Vcraigslist new york | strictly platonic search
p50
sS'rights'
p51
g36
sS'rdf_li'
p52
(dp53
S'rdf:resource'
p54
Vhttp://newyork.craigslist.org/brk/stp/6277552225.html
p55
ssS'subtitle_detail'
p56
g1
(g2
g3
(dp57
g31
Vhttps://newyork.craigslist.org/search/stp?format=rss
p58
sg17
Vtext/html
p59
sg34
Nsg35
V
stRp60
sS'title_detail'
p61
g1
(g2
g3
(dp62
g31
Vhttps://newyork.craigslist.org/search/stp?format=rss
p63
sg17
Vtext/plain
p64
sg34
Nsg35
g50
stRp65
sS'sy_updateperiod'
p66
Vhourly
p67
sS'entries'
p68
V
sS'sy_updatefrequency'
p69
V6
stRp70
sS'status'
p71
I301
sS'updated'
p72
S'Thu, 24 Aug 2017 05:58:41 GMT'
p73
sS'updated_parsed'
p74
ctime
struct_time
p75
((I2017
I8
I24
I5
I58
I41
I3
I236
I0
t(dtRp76
sS'encoding'
p77
Vutf-8
p78
sS'bozo'
p79
I0
sS'headers'
p80
(dp81
S'content-length'
p82
S'5197'
p83
sS'expires'
p84
S'Thu, 24 Aug 2017 06:13:41 GMT'
p85
sS'content-encoding'
p86
S'gzip'
p87
sS'strict-transport-security'
p88
S'max-age=86400'
p89
sS'vary'
p90
S'Accept-Encoding'
p91
sS'server'
p92
S'Apache'
p93
sS'last-modified'
p94
g73
sS'cache-control'
p95
S'max-age=900, public'
p96
sS'date'
p97
S'Thu, 24 Aug 2017 05:58:41 GMT'
p98
sS'x-frame-options'
p99
S'SAMEORIGIN'
p100
sS'content-type'
p101
S'application/rss+xml; charset=utf-8'
p102
ssg15
Vhttps://newyork.craigslist.org/search/stp?format=rss
p103
sS'version'
p104
Vrss10
p105
sg68
(lp106
g1
(g2
g3
(dp107
S'dc_source'
p108
Vhttp://newyork.craigslist.org/brk/stp/6259862943.html
p109
sS'summary_detail'
p110
g1
(g2
g3
(dp111
g31
Vhttps://newyork.craigslist.org/search/stp?format=rss
p112
sg17
g59
sg34
Nsg35
VJust like the tittle says \u000aI'm looking for a kool, same female that enjoys getting that special attention \u000aIf this is you then email me back with your picture and let's meet up. \u000aI can host.... I drive so I can also pick you up \u000a&#127866;&#127863; ...
p113
stRp114
sg74
g75
((I2017
I8
I24
I4
I53
I13
I3
I236
I0
t(dtRp115
sg12
(lp116
g1
(g2
g3
(dp117
g15
Vhttp://newyork.craigslist.org/brk/stp/6259862943.html
p118
sg17
g18
sg19
g20
stRp119
asg72
V2017-08-24T00:53:13-04:00
p120
sg23
g118
sS'rights_detail'
p121
g1
(g2
g3
(dp122
g31
Vhttps://newyork.craigslist.org/search/stp?format=rss
p123
sg17
g33
sg34
Nsg35
Vcopyright 2017 craiglist
p124
stRp125
sS'enc_enclosure'
p126
(dp127
S'resource'
p128
Vhttps://images.craigslist.org/00F0F_dqRx1BwFyUq_300x300.jpg
p129
sS'type'
p130
Vimage/jpeg
p131
ssS'id'
p132
Vhttp://newyork.craigslist.org/brk/stp/6259862943.html
p133
sS'dc_type'
p134
Vtext
p135
sg34
Ven-us
p136
sS'published_parsed'
p137
g75
((I2017
I8
I24
I4
I53
I13
I3
I236
I0
t(dtRp138
sg49
VPillow princess??  Let's talk - - w4w
p139
sg51
g124
sS'summary'
p140
g113
sS'title_detail'
p141
g1
(g2
g3
(dp142
g31
Vhttps://newyork.craigslist.org/search/stp?format=rss
p143
sg17
g64
sg34
Nsg35
g139
stRp144
sS'published'
p145
V2017-08-24T00:53:13-04:00
p146
stRp147
ag1
(g2
g3
(dp148
S'dc_source'
p149
Vhttp://newyork.craigslist.org/que/stp/6277570843.html
p150
sS'summary_detail'
p151
g1
(g2
g3
(dp152
g31
Vhttps://newyork.craigslist.org/search/stp?format=rss
p153
sg17
g59
sg34
Nsg35
VI am a passionate Italian man. \u000aI love Asian Girl..... \u000aLet's have nice time without commitment...just have great time! \u000aI am polite good manners no drug and smoke.
p154
stRp155
sg74
g75
((I2017
I8
I24
I4
I37
I49
I3
I236
I0
t(dtRp156
sg12
(lp157
g1
(g2
g3
(dp158
g15
Vhttp://newyork.craigslist.org/que/stp/6277570843.html
p159
sg17
g18
sg19
g20
stRp160
asg72
V2017-08-24T00:37:49-04:00
p161
sg23
g159
sS'rights_detail'
p162
g1
(g2
g3
(dp163
g31
Vhttps://newyork.craigslist.org/search/stp?format=rss
p164
sg17
g33
sg34
Nsg35
Vcopyright 2017 craiglist
p165
stRp166
sS'enc_enclosure'
p167
(dp168
S'resource'
p169
Vhttps://images.craigslist.org/00E0E_73ZR8j7eher_300x300.jpg
p170
sS'type'
p171
Vimage/jpeg
p172
ssg132
Vhttp://newyork.craigslist.org/que/stp/6277570843.html
p173
sS'dc_type'
p174
Vtext
p175
sg34
Ven-us
p176
sg137
g75
((I2017
I8
I24
I4
I37
I49
I3
I236
I0
t(dtRp177
sg49
VI love Asian Girl......... - m4w (Queens)
p178
sg51
g165
sg140
g154
sS'title_detail'
p179
g1
(g2
g3
(dp180
g31
Vhttps://newyork.craigslist.org/search/stp?format=rss
p181
sg17
g64
sg34
Nsg35
g178
stRp182
sg145
V2017-08-24T00:37:49-04:00
p183
stRp184
ag1
(g2
g3
(dp185
S'dc_source'
p186
Vhttp://newyork.craigslist.org/que/stp/6277547439.html
p187
sS'summary_detail'
p188
g1
(g2
g3
(dp189
g31
Vhttps://newyork.craigslist.org/search/stp?format=rss
p190
sg17
g59
sg34
Nsg35
VBe my friend! \u000aMaybe you'd like to chat. Or perhaps even meet up, take a walk through a park, go to beach. Maybe you want me to tickle you! \u000aOr maybe you'd just like to chat for now.... perhaps send me your picture... :-)
p191
stRp192
sg74
g75
((I2017
I8
I24
I4
I37
I22
I3
I236
I0
t(dtRp193
sg12
(lp194
g1
(g2
g3
(dp195
g15
Vhttp://newyork.craigslist.org/que/stp/6277547439.html
p196
sg17
g18
sg19
g20
stRp197
asg72
V2017-08-24T00:37:22-04:00
p198
sg23
g196
sS'rights_detail'
p199
g1
(g2
g3
(dp200
g31
Vhttps://newyork.craigslist.org/search/stp?format=rss
p201
sg17
g33
sg34
Nsg35
Vcopyright 2017 craiglist
p202
stRp203
sS'enc_enclosure'
p204
(dp205
S'resource'
p206
Vhttps://images.craigslist.org/01313_6Nwt51kRMXL_300x300.jpg
p207
sS'type'
p208
Vimage/jpeg
p209
ssg132
Vhttp://newyork.craigslist.org/que/stp/6277547439.html
p210
sS'dc_type'
p211
Vtext
p212
sg34
Ven-us
p213
sg137
g75
((I2017
I8
I24
I4
I37
I22
I3
I236
I0
t(dtRp214
sg49
VChat with a friend - m4w (Queens)
p215
sg51
g202
sg140
g191
sS'title_detail'
p216
g1
(g2
g3
(dp217
g31
Vhttps://newyork.craigslist.org/search/stp?format=rss
p218
sg17
g64
sg34
Nsg35
g215
stRp219
sg145
V2017-08-24T00:37:22-04:00
p220
stRp221
ag1
(g2
g3
(dp222
S'dc_source'
p223
Vhttp://newyork.craigslist.org/brx/stp/6277587080.html
p224
sS'summary_detail'
p225
g1
(g2
g3
(dp226
g31
Vhttps://newyork.craigslist.org/search/stp?format=rss
p227
sg17
g59
sg34
Nsg35
VMe: Heavy-set, Tall, Rican, very down-to-earth, open minded with a great sense of humor. Hobbies include traveling, gaming, cooking, among other things. \u000aI'm looking for a woman who's also down to earth, open minded and chill to hang out with and pos ...
p228
stRp229
sg74
g75
((I2017
I8
I24
I4
I34
I25
I3
I236
I0
t(dtRp230
sg12
(lp231
g1
(g2
g3
(dp232
g15
Vhttp://newyork.craigslist.org/brx/stp/6277587080.html
p233
sg17
g18
sg19
g20
stRp234
asg72
V2017-08-24T00:34:25-04:00
p235
sg23
g233
sS'rights_detail'
p236
g1
(g2
g3
(dp237
g31
Vhttps://newyork.craigslist.org/search/stp?format=rss
p238
sg17
g33
sg34
Nsg35
Vcopyright 2017 craiglist
p239
stRp240
sg132
Vhttp://newyork.craigslist.org/brx/stp/6277587080.html
p241
sS'dc_type'
p242
Vtext
p243
sg34
Ven-us
p244
sg137
g75
((I2017
I8
I24
I4
I34
I25
I3
I236
I0
t(dtRp245
sg49
VLooking for down to earth woman - m4w (Bronx)
p246
sg51
g239
sg140
g228
sS'title_detail'
p247
g1
(g2
g3
(dp248
g31
Vhttps://newyork.craigslist.org/search/stp?format=rss
p249
sg17
g64
sg34
Nsg35
g246
stRp250
sg145
V2017-08-24T00:34:25-04:00
p251
stRp252
ag1
(g2
g3
(dp253
S'dc_source'
p254
Vhttp://newyork.craigslist.org/mnh/stp/6271326265.html
p255
sS'summary_detail'
p256
g1
(g2
g3
(dp257
g31
Vhttps://newyork.craigslist.org/search/stp?format=rss
p258
sg17
g59
sg34
Nsg35
VLets have fun. Lets get away together. No strings attached. \u000aIt really is simple. Lets meet and see if we would have a good time together and \u000athen lets plan a trip. Easy as that, I'm a very sincere man with a good sense of humor and adventure. \u000aIf y ...
p259
stRp260
sg74
g75
((I2017
I8
I24
I4
I31
I9
I3
I236
I0
t(dtRp261
sg12
(lp262
g1
(g2
g3
(dp263
g15
Vhttp://newyork.craigslist.org/mnh/stp/6271326265.html
p264
sg17
g18
sg19
g20
stRp265
asg72
V2017-08-24T00:31:09-04:00
p266
sg23
g264
sS'rights_detail'
p267
g1
(g2
g3
(dp268
g31
Vhttps://newyork.craigslist.org/search/stp?format=rss
p269
sg17
g33
sg34
Nsg35
Vcopyright 2017 craiglist
p270
stRp271
sg132
Vhttp://newyork.craigslist.org/mnh/stp/6271326265.html
p272
sS'dc_type'
p273
Vtext
p274
sg34
Ven-us
p275
sg137
g75
((I2017
I8
I24
I4
I31
I9
I3
I236
I0
t(dtRp276
sg49
VSeeking Fun Female For Free Travel - m4w (Gramercy)
p277
sg51
g270
sg140
g259
sS'title_detail'
p278
g1
(g2
g3
(dp279
g31
Vhttps://newyork.craigslist.org/search/stp?format=rss
p280
sg17
g64
sg34
Nsg35
g277
stRp281
sg145
V2017-08-24T00:31:09-04:00
p282
stRp283
ag1
(g2
g3
(dp284
S'dc_source'
p285
Vhttp://newyork.craigslist.org/que/stp/6277582120.html
p286
sS'summary_detail'
p287
g1
(g2
g3
(dp288
g31
Vhttps://newyork.craigslist.org/search/stp?format=rss
p289
sg17
g59
sg34
Nsg35
VHispanic m bored and just looking for someone that would like to talk for awhile.
p290
stRp291
sg74
g75
((I2017
I8
I24
I4
I25
I43
I3
I236
I0
t(dtRp292
sg12
(lp293
g1
(g2
g3
(dp294
g15
Vhttp://newyork.craigslist.org/que/stp/6277582120.html
p295
sg17
g18
sg19
g20
stRp296
asg72
V2017-08-24T00:25:43-04:00
p297
sg23
g295
sS'rights_detail'
p298
g1
(g2
g3
(dp299
g31
Vhttps://newyork.craigslist.org/search/stp?format=rss
p300
sg17
g33
sg34
Nsg35
Vcopyright 2017 craiglist
p301
stRp302
sg132
Vhttp://newyork.craigslist.org/que/stp/6277582120.html
p303
sS'dc_type'
p304
Vtext
p305
sg34
Ven-us
p306
sg137
g75
((I2017
I8
I24
I4
I25
I43
I3
I236
I0
t(dtRp307
sg49
VLooking for conversation. - m4w (Jackson heights)
p308
sg51
g301
sg140
g290
sS'title_detail'
p309
g1
(g2
g3
(dp310
g31
Vhttps://newyork.craigslist.org/search/stp?format=rss
p311
sg17
g64
sg34
Nsg35
g308
stRp312
sg145
V2017-08-24T00:25:43-04:00
p313
stRp314
ag1
(g2
g3
(dp315
S'dc_source'
p316
Vhttp://newyork.craigslist.org/stn/stp/6277582079.html
p317
sS'summary_detail'
p318
g1
(g2
g3
(dp319
g31
Vhttps://newyork.craigslist.org/search/stp?format=rss
p320
sg17
g59
sg34
Nsg35
VHi, I will try and keep it short to the point. I am not sure if what I want exists. I have a complicated life. Work, family and just life in general. So busy that life is just flying by. Alone and full of thoughts of life. I don't want a marriage or  ...
p321
stRp322
sg74
g75
((I2017
I8
I24
I4
I25
I38
I3
I236
I0
t(dtRp323
sg12
(lp324
g1
(g2
g3
(dp325
g15
Vhttp://newyork.craigslist.org/stn/stp/6277582079.html
p326
sg17
g18
sg19
g20
stRp327
asg72
V2017-08-24T00:25:38-04:00
p328
sg23
g326
sS'rights_detail'
p329
g1
(g2
g3
(dp330
g31
Vhttps://newyork.craigslist.org/search/stp?format=rss
p331
sg17
g33
sg34
Nsg35
Vcopyright 2017 craiglist
p332
stRp333
sg132
Vhttp://newyork.craigslist.org/stn/stp/6277582079.html
p334
sS'dc_type'
p335
Vtext
p336
sg34
Ven-us
p337
sg137
g75
((I2017
I8
I24
I4
I25
I38
I3
I236
I0
t(dtRp338
sg49
VSomething In between????? - m4w
p339
sg51
g332
sg140
g321
sS'title_detail'
p340
g1
(g2
g3
(dp341
g31
Vhttps://newyork.craigslist.org/search/stp?format=rss
p342
sg17
g64
sg34
Nsg35
g339
stRp343
sg145
V2017-08-24T00:25:38-04:00
p344
stRp345
ag1
(g2
g3
(dp346
S'dc_source'
p347
Vhttp://newyork.craigslist.org/mnh/stp/6277577801.html
p348
sS'summary_detail'
p349
g1
(g2
g3
(dp350
g31
Vhttps://newyork.craigslist.org/search/stp?format=rss
p351
sg17
g59
sg34
Nsg35
VIf you're in need , how would you like a massage treat, let's discuss. Im a normal fun female. I'll bring the oils you just lay back and relax. I'm available tonight and tomorrow. It's a nice evening, if you can host and located in Manhattan, let's m ...
p352
stRp353
sg74
g75
((I2017
I8
I24
I4
I18
I26
I3
I236
I0
t(dtRp354
sg12
(lp355
g1
(g2
g3
(dp356
g15
Vhttp://newyork.craigslist.org/mnh/stp/6277577801.html
p357
sg17
g18
sg19
g20
stRp358
asg72
V2017-08-24T00:18:26-04:00
p359
sg23
g357
sS'rights_detail'
p360
g1
(g2
g3
(dp361
g31
Vhttps://newyork.craigslist.org/search/stp?format=rss
p362
sg17
g33
sg34
Nsg35
Vcopyright 2017 craiglist
p363
stRp364
sg132
Vhttp://newyork.craigslist.org/mnh/stp/6277577801.html
p365
sS'dc_type'
p366
Vtext
p367
sg34
Ven-us
p368
sg137
g75
((I2017
I8
I24
I4
I18
I26
I3
I236
I0
t(dtRp369
sg49
VThe Best Is Yet to Come - w4m (Chelsea)
p370
sg51
g363
sg140
g352
sS'title_detail'
p371
g1
(g2
g3
(dp372
g31
Vhttps://newyork.craigslist.org/search/stp?format=rss
p373
sg17
g64
sg34
Nsg35
g370
stRp374
sg145
V2017-08-24T00:18:26-04:00
p375
stRp376
ag1
(g2
g3
(dp377
S'dc_source'
p378
Vhttp://newyork.craigslist.org/brx/stp/6277575319.html
p379
sS'summary_detail'
p380
g1
(g2
g3
(dp381
g31
Vhttps://newyork.craigslist.org/search/stp?format=rss
p382
sg17
g59
sg34
Nsg35
VHi am looking for women enjoy good sexual free if you are interested text me please
p383
stRp384
sg74
g75
((I2017
I8
I24
I4
I14
I16
I3
I236
I0
t(dtRp385
sg12
(lp386
g1
(g2
g3
(dp387
g15
Vhttp://newyork.craigslist.org/brx/stp/6277575319.html
p388
sg17
g18
sg19
g20
stRp389
asg72
V2017-08-24T00:14:16-04:00
p390
sg23
g388
sS'rights_detail'
p391
g1
(g2
g3
(dp392
g31
Vhttps://newyork.craigslist.org/search/stp?format=rss
p393
sg17
g33
sg34
Nsg35
Vcopyright 2017 craiglist
p394
stRp395
sg132
Vhttp://newyork.craigslist.org/brx/stp/6277575319.html
p396
sS'dc_type'
p397
Vtext
p398
sg34
Ven-us
p399
sg137
g75
((I2017
I8
I24
I4
I14
I16
I3
I236
I0
t(dtRp400
sg49
VHi am man looking for women - w4m (Bronx)
p401
sg51
g394
sg140
g383
sS'title_detail'
p402
g1
(g2
g3
(dp403
g31
Vhttps://newyork.craigslist.org/search/stp?format=rss
p404
sg17
g64
sg34
Nsg35
g401
stRp405
sg145
V2017-08-24T00:14:16-04:00
p406
stRp407
ag1
(g2
g3
(dp408
S'dc_source'
p409
Vhttp://newyork.craigslist.org/brx/stp/6274389407.html
p410
sS'summary_detail'
p411
g1
(g2
g3
(dp412
g31
Vhttps://newyork.craigslist.org/search/stp?format=rss
p413
sg17
g59
sg34
Nsg35
VHey 30 white male who is a huge horror movie fan and looking for a female friend who is a big fan as well. I have a huge movie collection and owns lots off horror movie masks and posters. I also do special male up effects work and have done work on a ...
p414
stRp415
sg74
g75
((I2017
I8
I24
I4
I13
I24
I3
I236
I0
t(dtRp416
sg12
(lp417
g1
(g2
g3
(dp418
g15
Vhttp://newyork.craigslist.org/brx/stp/6274389407.html
p419
sg17
g18
sg19
g20
stRp420
asg72
V2017-08-24T00:13:24-04:00
p421
sg23
g419
sS'rights_detail'
p422
g1
(g2
g3
(dp423
g31
Vhttps://newyork.craigslist.org/search/stp?format=rss
p424
sg17
g33
sg34
Nsg35
Vcopyright 2017 craiglist
p425
stRp426
sS'enc_enclosure'
p427
(dp428
S'resource'
p429
Vhttps://images.craigslist.org/00r0r_5f3Nj2AuYWa_300x300.jpg
p430
sS'type'
p431
Vimage/jpeg
p432
ssg132
Vhttp://newyork.craigslist.org/brx/stp/6274389407.html
p433
sS'dc_type'
p434
Vtext
p435
sg34
Ven-us
p436
sg137
g75
((I2017
I8
I24
I4
I13
I24
I3
I236
I0
t(dtRp437
sg49
VLooking for a horror movie friend - m4w (Bronx)
p438
sg51
g425
sg140
g414
sS'title_detail'
p439
g1
(g2
g3
(dp440
g31
Vhttps://newyork.craigslist.org/search/stp?format=rss
p441
sg17
g64
sg34
Nsg35
g438
stRp442
sg145
V2017-08-24T00:13:24-04:00
p443
stRp444
ag1
(g2
g3
(dp445
S'dc_source'
p446
Vhttp://newyork.craigslist.org/mnh/stp/6274382642.html
p447
sS'summary_detail'
p448
g1
(g2
g3
(dp449
g31
Vhttps://newyork.craigslist.org/search/stp?format=rss
p450
sg17
g59
sg34
Nsg35
VDance salsa on2 with me if you're a beginner or intermediate female. I dance socially almost every week. \u000aI'm an intermediate on2 salsa dancer with about 4 years of salsa experience. I'm 6'5", athletic build and in excellent shape. Your height doesn' ...
p451
stRp452
sg74
g75
((I2017
I8
I24
I4
I8
I33
I3
I236
I0
t(dtRp453
sg12
(lp454
g1
(g2
g3
(dp455
g15
Vhttp://newyork.craigslist.org/mnh/stp/6274382642.html
p456
sg17
g18
sg19
g20
stRp457
asg72
V2017-08-24T00:08:33-04:00
p458
sg23
g456
sS'rights_detail'
p459
g1
(g2
g3
(dp460
g31
Vhttps://newyork.craigslist.org/search/stp?format=rss
p461
sg17
g33
sg34
Nsg35
Vcopyright 2017 craiglist
p462
stRp463
sg132
Vhttp://newyork.craigslist.org/mnh/stp/6274382642.html
p464
sS'dc_type'
p465
Vtext
p466
sg34
Ven-us
p467
sg137
g75
((I2017
I8
I24
I4
I8
I33
I3
I236
I0
t(dtRp468
sg49
VSalsa Dance Partner (@ clubs) - m4w (Manhattan or Brooklyn)
p469
sg51
g462
sg140
g451
sS'title_detail'
p470
g1
(g2
g3
(dp471
g31
Vhttps://newyork.craigslist.org/search/stp?format=rss
p472
sg17
g64
sg34
Nsg35
g469
stRp473
sg145
V2017-08-24T00:08:33-04:00
p474
stRp475
ag1
(g2
g3
(dp476
S'dc_source'
p477
Vhttp://newyork.craigslist.org/mnh/stp/6277571388.html
p478
sS'summary_detail'
p479
g1
(g2
g3
(dp480
g31
Vhttps://newyork.craigslist.org/search/stp?format=rss
p481
sg17
g59
sg34
Nsg35
Vso Tinder get's boring after awhile, does anyone want to catch a movie this week? Or chat? i'm super bored at work.
p482
stRp483
sg74
g75
((I2017
I8
I24
I4
I7
I49
I3
I236
I0
t(dtRp484
sg12
(lp485
g1
(g2
g3
(dp486
g15
Vhttp://newyork.craigslist.org/mnh/stp/6277571388.html
p487
sg17
g18
sg19
g20
stRp488
asg72
V2017-08-24T00:07:49-04:00
p489
sg23
g487
sS'rights_detail'
p490
g1
(g2
g3
(dp491
g31
Vhttps://newyork.craigslist.org/search/stp?format=rss
p492
sg17
g33
sg34
Nsg35
Vcopyright 2017 craiglist
p493
stRp494
sg132
Vhttp://newyork.craigslist.org/mnh/stp/6277571388.html
p495
sS'dc_type'
p496
Vtext
p497
sg34
Ven-us
p498
sg137
g75
((I2017
I8
I24
I4
I7
I49
I3
I236
I0
t(dtRp499
sg49
VTinder Date - m4w
p500
sg51
g493
sg140
g482
sS'title_detail'
p501
g1
(g2
g3
(dp502
g31
Vhttps://newyork.craigslist.org/search/stp?format=rss
p503
sg17
g64
sg34
Nsg35
g500
stRp504
sg145
V2017-08-24T00:07:49-04:00
p505
stRp506
ag1
(g2
g3
(dp507
S'dc_source'
p508
Vhttp://newyork.craigslist.org/lgi/stp/6274209165.html
p509
sS'summary_detail'
p510
g1
(g2
g3
(dp511
g31
Vhttps://newyork.craigslist.org/search/stp?format=rss
p512
sg17
g59
sg34
Nsg35
VFantasy play today \u000apictures for pictures \u000amust be open-minded \u000aMild to Wild \u000anot gentle \u000awhat are you curious about ?
p513
stRp514
sg74
g75
((I2017
I8
I24
I4
I5
I6
I3
I236
I0
t(dtRp515
sg12
(lp516
g1
(g2
g3
(dp517
g15
Vhttp://newyork.craigslist.org/lgi/stp/6274209165.html
p518
sg17
g18
sg19
g20
stRp519
asg72
V2017-08-24T00:05:06-04:00
p520
sg23
g518
sS'rights_detail'
p521
g1
(g2
g3
(dp522
g31
Vhttps://newyork.craigslist.org/search/stp?format=rss
p523
sg17
g33
sg34
Nsg35
Vcopyright 2017 craiglist
p524
stRp525
sg132
Vhttp://newyork.craigslist.org/lgi/stp/6274209165.html
p526
sS'dc_type'
p527
Vtext
p528
sg34
Ven-us
p529
sg137
g75
((I2017
I8
I24
I4
I5
I6
I3
I236
I0
t(dtRp530
sg49
VFantasy Play - m4w (Queens Manhattan LI.)
p531
sg51
g524
sg140
g513
sS'title_detail'
p532
g1
(g2
g3
(dp533
g31
Vhttps://newyork.craigslist.org/search/stp?format=rss
p534
sg17
g64
sg34
Nsg35
g531
stRp535
sg145
V2017-08-24T00:05:06-04:00
p536
stRp537
ag1
(g2
g3
(dp538
S'dc_source'
p539
Vhttp://newyork.craigslist.org/brk/stp/6274436443.html
p540
sS'summary_detail'
p541
g1
(g2
g3
(dp542
g31
Vhttps://newyork.craigslist.org/search/stp?format=rss
p543
sg17
g59
sg34
Nsg35
Vlooking for older dudes who love the company of a younger dude (Friendship) \u000ai'm looking to get something at the drive thru hang out and have a drink \u000a(alcoholic,preferably dark liquor) \u000aat your place and just relax \u000a35 and over unless you drive and  ...
p544
stRp545
sg74
g75
((I2017
I8
I24
I4
I3
I51
I3
I236
I0
t(dtRp546
sg12
(lp547
g1
(g2
g3
(dp548
g15
Vhttp://newyork.craigslist.org/brk/stp/6274436443.html
p549
sg17
g18
sg19
g20
stRp550
asg72
V2017-08-24T00:03:51-04:00
p551
sg23
g549
sS'rights_detail'
p552
g1
(g2
g3
(dp553
g31
Vhttps://newyork.craigslist.org/search/stp?format=rss
p554
sg17
g33
sg34
Nsg35
Vcopyright 2017 craiglist
p555
stRp556
sg132
Vhttp://newyork.craigslist.org/brk/stp/6274436443.html
p557
sS'dc_type'
p558
Vtext
p559
sg34
Ven-us
p560
sg137
g75
((I2017
I8
I24
I4
I3
I51
I3
I236
I0
t(dtRp561
sg49
VLetZ Hang - m4m
p562
sg51
g555
sg140
g544
sS'title_detail'
p563
g1
(g2
g3
(dp564
g31
Vhttps://newyork.craigslist.org/search/stp?format=rss
p565
sg17
g64
sg34
Nsg35
g562
stRp566
sg145
V2017-08-24T00:03:51-04:00
p567
stRp568
ag1
(g2
g3
(dp569
S'dc_source'
p570
Vhttp://newyork.craigslist.org/mnh/stp/6263311414.html
p571
sS'summary_detail'
p572
g1
(g2
g3
(dp573
g31
Vhttps://newyork.craigslist.org/search/stp?format=rss
p574
sg17
g59
sg34
Nsg35
VHi! \u000aI'm going to start (re)reading the Dark Tower series again, after having last read it over 10 years ago. \u000aSince it is such a long and epic series, would be cool to meet someone to discuss it with over coffee and pastries on a regular basis, like ...
p575
stRp576
sg74
g75
((I2017
I8
I24
I4
I2
I9
I3
I236
I0
t(dtRp577
sg12
(lp578
g1
(g2
g3
(dp579
g15
Vhttp://newyork.craigslist.org/mnh/stp/6263311414.html
p580
sg17
g18
sg19
g20
stRp581
asg72
V2017-08-24T00:02:09-04:00
p582
sg23
g580
sS'rights_detail'
p583
g1
(g2
g3
(dp584
g31
Vhttps://newyork.craigslist.org/search/stp?format=rss
p585
sg17
g33
sg34
Nsg35
Vcopyright 2017 craiglist
p586
stRp587
sg132
Vhttp://newyork.craigslist.org/mnh/stp/6263311414.html
p588
sS'dc_type'
p589
Vtext
p590
sg34
Ven-us
p591
sg137
g75
((I2017
I8
I24
I4
I2
I9
I3
I236
I0
t(dtRp592
sg49
Va girl to discuss The Dark Tower series with - m4w
p593
sg51
g586
sg140
g575
sS'title_detail'
p594
g1
(g2
g3
(dp595
g31
Vhttps://newyork.craigslist.org/search/stp?format=rss
p596
sg17
g64
sg34
Nsg35
g593
stRp597
sg145
V2017-08-24T00:02:09-04:00
p598
stRp599
ag1
(g2
g3
(dp600
S'dc_source'
p601
Vhttp://newyork.craigslist.org/jsy/stp/6277545048.html
p602
sS'summary_detail'
p603
g1
(g2
g3
(dp604
g31
Vhttps://newyork.craigslist.org/search/stp?format=rss
p605
sg17
g59
sg34
Nsg35
VLady Seeks Man for Casino Slots Play! Let's win some jackpots together! I will be staying in accommodations on the Boardwalk, and have access to several amenities to which you can also be invited. I'm just looking for a nice guy who might want to sha ...
p606
stRp607
sg74
g75
((I2017
I8
I24
I3
I54
I53
I3
I236
I0
t(dtRp608
sg12
(lp609
g1
(g2
g3
(dp610
g15
Vhttp://newyork.craigslist.org/jsy/stp/6277545048.html
p611
sg17
g18
sg19
g20
stRp612
asg72
V2017-08-23T23:54:53-04:00
p613
sg23
g611
sS'rights_detail'
p614
g1
(g2
g3
(dp615
g31
Vhttps://newyork.craigslist.org/search/stp?format=rss
p616
sg17
g33
sg34
Nsg35
Vcopyright 2017 craiglist
p617
stRp618
sg132
Vhttp://newyork.craigslist.org/jsy/stp/6277545048.html
p619
sS'dc_type'
p620
Vtext
p621
sg34
Ven-us
p622
sg137
g75
((I2017
I8
I24
I3
I54
I53
I3
I236
I0
t(dtRp623
sg49
VLady Seeks Man for Atlantic City Slot Jackpots! Let's Win Together! - w4m (Atlantic City Boardwalk Casinos)
p624
sg51
g617
sg140
g606
sS'title_detail'
p625
g1
(g2
g3
(dp626
g31
Vhttps://newyork.craigslist.org/search/stp?format=rss
p627
sg17
g64
sg34
Nsg35
g624
stRp628
sg145
V2017-08-23T23:54:53-04:00
p629
stRp630
ag1
(g2
g3
(dp631
S'dc_source'
p632
Vhttp://newyork.craigslist.org/que/stp/6269344952.html
p633
sS'summary_detail'
p634
g1
(g2
g3
(dp635
g31
Vhttps://newyork.craigslist.org/search/stp?format=rss
p636
sg17
g59
sg34
Nsg35
VDriver available for working girls or women who need a ride \u000apickup from Queens, Brooklyn or Nassau areas only \u000awhether its one way, round trip, weekly \u000aim quiet and safe for the most part not a pimp not cop just a guy with car tryna make some bread, ...
p637
stRp638
sg74
g75
((I2017
I8
I24
I3
I53
I24
I3
I236
I0
t(dtRp639
sg12
(lp640
g1
(g2
g3
(dp641
g15
Vhttp://newyork.craigslist.org/que/stp/6269344952.html
p642
sg17
g18
sg19
g20
stRp643
asg72
V2017-08-23T23:53:24-04:00
p644
sg23
g642
sS'rights_detail'
p645
g1
(g2
g3
(dp646
g31
Vhttps://newyork.craigslist.org/search/stp?format=rss
p647
sg17
g33
sg34
Nsg35
Vcopyright 2017 craiglist
p648
stRp649
sg132
Vhttp://newyork.craigslist.org/que/stp/6269344952.html
p650
sS'dc_type'
p651
Vtext
p652
sg34
Ven-us
p653
sg137
g75
((I2017
I8
I24
I3
I53
I24
I3
I236
I0
t(dtRp654
sg49
Vdriver for females - m4w
p655
sg51
g648
sg140
g637
sS'title_detail'
p656
g1
(g2
g3
(dp657
g31
Vhttps://newyork.craigslist.org/search/stp?format=rss
p658
sg17
g64
sg34
Nsg35
g655
stRp659
sg145
V2017-08-23T23:53:24-04:00
p660
stRp661
ag1
(g2
g3
(dp662
S'dc_source'
p663
Vhttp://newyork.craigslist.org/que/stp/6277559334.html
p664
sS'summary_detail'
p665
g1
(g2
g3
(dp666
g31
Vhttps://newyork.craigslist.org/search/stp?format=rss
p667
sg17
g59
sg34
Nsg35
VHey everyone, I'm looking for a new friend. Someone down to earth and humorous. I'm 26 years old from Rego Park, Queens and spend most of time working and teaching. I'm Hispanic and Caucasian ( light skinned ) with an athletic build. \u000aSome of my inte ...
p668
stRp669
sg74
g75
((I2017
I8
I24
I3
I48
I58
I3
I236
I0
t(dtRp670
sg12
(lp671
g1
(g2
g3
(dp672
g15
Vhttp://newyork.craigslist.org/que/stp/6277559334.html
p673
sg17
g18
sg19
g20
stRp674
asg72
V2017-08-23T23:48:58-04:00
p675
sg23
g673
sS'rights_detail'
p676
g1
(g2
g3
(dp677
g31
Vhttps://newyork.craigslist.org/search/stp?format=rss
p678
sg17
g33
sg34
Nsg35
Vcopyright 2017 craiglist
p679
stRp680
sg132
Vhttp://newyork.craigslist.org/que/stp/6277559334.html
p681
sS'dc_type'
p682
Vtext
p683
sg34
Ven-us
p684
sg137
g75
((I2017
I8
I24
I3
I48
I58
I3
I236
I0
t(dtRp685
sg49
VNew Friendship - Honest Friendship - m4w (Rego Park)
p686
sg51
g679
sg140
g668
sS'title_detail'
p687
g1
(g2
g3
(dp688
g31
Vhttps://newyork.craigslist.org/search/stp?format=rss
p689
sg17
g64
sg34
Nsg35
g686
stRp690
sg145
V2017-08-23T23:48:58-04:00
p691
stRp692
ag1
(g2
g3
(dp693
S'dc_source'
p694
Vhttp://newyork.craigslist.org/mnh/stp/6277558455.html
p695
sS'summary_detail'
p696
g1
(g2
g3
(dp697
g31
Vhttps://newyork.craigslist.org/search/stp?format=rss
p698
sg17
g59
sg34
Nsg35
VSincerely looking to make and hangout with a friend who is female. Let's start with that; seriously. \u000aSo some things about me: I can talk about some deep topics, I have two BS degrees, have a solid career in technology, and I'm athletic and funny :). ...
p699
stRp700
sg74
g75
((I2017
I8
I24
I3
I47
I40
I3
I236
I0
t(dtRp701
sg12
(lp702
g1
(g2
g3
(dp703
g15
Vhttp://newyork.craigslist.org/mnh/stp/6277558455.html
p704
sg17
g18
sg19
g20
stRp705
asg72
V2017-08-23T23:47:40-04:00
p706
sg23
g704
sS'rights_detail'
p707
g1
(g2
g3
(dp708
g31
Vhttps://newyork.craigslist.org/search/stp?format=rss
p709
sg17
g33
sg34
Nsg35
Vcopyright 2017 craiglist
p710
stRp711
sg132
Vhttp://newyork.craigslist.org/mnh/stp/6277558455.html
p712
sS'dc_type'
p713
Vtext
p714
sg34
Ven-us
p715
sg137
g75
((I2017
I8
I24
I3
I47
I40
I3
I236
I0
t(dtRp716
sg49
VHi, I'd love to join you at your favorite bar. - m4w (Chelsea)
p717
sg51
g710
sg140
g699
sS'title_detail'
p718
g1
(g2
g3
(dp719
g31
Vhttps://newyork.craigslist.org/search/stp?format=rss
p720
sg17
g64
sg34
Nsg35
g717
stRp721
sg145
V2017-08-23T23:47:40-04:00
p722
stRp723
ag1
(g2
g3
(dp724
S'dc_source'
p725
Vhttp://newyork.craigslist.org/mnh/stp/6263704135.html
p726
sS'summary_detail'
p727
g1
(g2
g3
(dp728
g31
Vhttps://newyork.craigslist.org/search/stp?format=rss
p729
sg17
g59
sg34
Nsg35
VI'm an attractive life-long New Yorker and looking for a Thai girl for friendship. I would like to learn more about your culture and if we click I'm open to more...I'm college educated, fit, attractive, have a curious mind and would like to travel to ...
p730
stRp731
sg74
g75
((I2017
I8
I24
I3
I45
I20
I3
I236
I0
t(dtRp732
sg12
(lp733
g1
(g2
g3
(dp734
g15
Vhttp://newyork.craigslist.org/mnh/stp/6263704135.html
p735
sg17
g18
sg19
g20
stRp736
asg72
V2017-08-23T23:45:20-04:00
p737
sg23
g735
sS'rights_detail'
p738
g1
(g2
g3
(dp739
g31
Vhttps://newyork.craigslist.org/search/stp?format=rss
p740
sg17
g33
sg34
Nsg35
Vcopyright 2017 craiglist
p741
stRp742
sg132
Vhttp://newyork.craigslist.org/mnh/stp/6263704135.html
p743
sS'dc_type'
p744
Vtext
p745
sg34
Ven-us
p746
sg137
g75
((I2017
I8
I24
I3
I45
I20
I3
I236
I0
t(dtRp747
sg49
VSeeking Thai Girl - m4w (Union Square)
p748
sg51
g741
sg140
g730
sS'title_detail'
p749
g1
(g2
g3
(dp750
g31
Vhttps://newyork.craigslist.org/search/stp?format=rss
p751
sg17
g64
sg34
Nsg35
g748
stRp752
sg145
V2017-08-23T23:45:20-04:00
p753
stRp754
ag1
(g2
g3
(dp755
S'dc_source'
p756
Vhttp://newyork.craigslist.org/mnh/stp/6239022295.html
p757
sS'summary_detail'
p758
g1
(g2
g3
(dp759
g31
Vhttps://newyork.craigslist.org/search/stp?format=rss
p760
sg17
g59
sg34
Nsg35
VI'm looking to form a connection with an open-minded girl who would like to get massages for relaxation. I'm skilled in Swedish techniques, have very strong hands and I can work on the neck, back or full body, depending on your comfort level. I take  ...
p761
stRp762
sg74
g75
((I2017
I8
I24
I3
I44
I48
I3
I236
I0
t(dtRp763
sg12
(lp764
g1
(g2
g3
(dp765
g15
Vhttp://newyork.craigslist.org/mnh/stp/6239022295.html
p766
sg17
g18
sg19
g20
stRp767
asg72
V2017-08-23T23:44:48-04:00
p768
sg23
g766
sS'rights_detail'
p769
g1
(g2
g3
(dp770
g31
Vhttps://newyork.craigslist.org/search/stp?format=rss
p771
sg17
g33
sg34
Nsg35
Vcopyright 2017 craiglist
p772
stRp773
sg132
Vhttp://newyork.craigslist.org/mnh/stp/6239022295.html
p774
sS'dc_type'
p775
Vtext
p776
sg34
Ven-us
p777
sg137
g75
((I2017
I8
I24
I3
I44
I48
I3
I236
I0
t(dtRp778
sg49
VRelaxing Massage - m4w (Union Square)
p779
sg51
g772
sg140
g761
sS'title_detail'
p780
g1
(g2
g3
(dp781
g31
Vhttps://newyork.craigslist.org/search/stp?format=rss
p782
sg17
g64
sg34
Nsg35
g779
stRp783
sg145
V2017-08-23T23:44:48-04:00
p784
stRp785
ag1
(g2
g3
(dp786
S'dc_source'
p787
Vhttp://newyork.craigslist.org/mnh/stp/6271756853.html
p788
sS'summary_detail'
p789
g1
(g2
g3
(dp790
g31
Vhttps://newyork.craigslist.org/search/stp?format=rss
p791
sg17
g59
sg34
Nsg35
VI enjoy giving massages and I've been giving friends massages for years. I have strong hands and I'm very good at working out knots and tension and helping you relax, especially if you have stress related tension. I use oil and I'm knowledgeable in S ...
p792
stRp793
sg74
g75
((I2017
I8
I24
I3
I44
I35
I3
I236
I0
t(dtRp794
sg12
(lp795
g1
(g2
g3
(dp796
g15
Vhttp://newyork.craigslist.org/mnh/stp/6271756853.html
p797
sg17
g18
sg19
g20
stRp798
asg72
V2017-08-23T23:44:35-04:00
p799
sg23
g797
sS'rights_detail'
p800
g1
(g2
g3
(dp801
g31
Vhttps://newyork.craigslist.org/search/stp?format=rss
p802
sg17
g33
sg34
Nsg35
Vcopyright 2017 craiglist
p803
stRp804
sg132
Vhttp://newyork.craigslist.org/mnh/stp/6271756853.html
p805
sS'dc_type'
p806
Vtext
p807
sg34
Ven-us
p808
sg137
g75
((I2017
I8
I24
I3
I44
I35
I3
I236
I0
t(dtRp809
sg49
VMassage - m4w - m4w (East Village)
p810
sg51
g803
sg140
g792
sS'title_detail'
p811
g1
(g2
g3
(dp812
g31
Vhttps://newyork.craigslist.org/search/stp?format=rss
p813
sg17
g64
sg34
Nsg35
g810
stRp814
sg145
V2017-08-23T23:44:35-04:00
p815
stRp816
ag1
(g2
g3
(dp817
S'dc_source'
p818
Vhttp://newyork.craigslist.org/brx/stp/6269142776.html
p819
sS'summary_detail'
p820
g1
(g2
g3
(dp821
g31
Vhttps://newyork.craigslist.org/search/stp?format=rss
p822
sg17
g59
sg34
Nsg35
Vwhite male single employed seeks a female who knows the ups and downs of depression \u000aI am looking for a friend someone I can talk to and get to know I am normal sane \u000awith some issues in my past looking for someone who is the same because if you tell ...
p823
stRp824
sg74
g75
((I2017
I8
I24
I3
I41
I17
I3
I236
I0
t(dtRp825
sg12
(lp826
g1
(g2
g3
(dp827
g15
Vhttp://newyork.craigslist.org/brx/stp/6269142776.html
p828
sg17
g18
sg19
g20
stRp829
asg72
V2017-08-23T23:41:17-04:00
p830
sg23
g828
sS'rights_detail'
p831
g1
(g2
g3
(dp832
g31
Vhttps://newyork.craigslist.org/search/stp?format=rss
p833
sg17
g33
sg34
Nsg35
Vcopyright 2017 craiglist
p834
stRp835
sg132
Vhttp://newyork.craigslist.org/brx/stp/6269142776.html
p836
sS'dc_type'
p837
Vtext
p838
sg34
Ven-us
p839
sg137
g75
((I2017
I8
I24
I3
I41
I17
I3
I236
I0
t(dtRp840
sg49
Vlooking for someone who in the same shoes depression - m4w (NYC)
p841
sg51
g834
sg140
g823
sS'title_detail'
p842
g1
(g2
g3
(dp843
g31
Vhttps://newyork.craigslist.org/search/stp?format=rss
p844
sg17
g64
sg34
Nsg35
g841
stRp845
sg145
V2017-08-23T23:41:17-04:00
p846
stRp847
ag1
(g2
g3
(dp848
S'dc_source'
p849
Vhttp://newyork.craigslist.org/mnh/stp/6263389630.html
p850
sS'summary_detail'
p851
g1
(g2
g3
(dp852
g31
Vhttps://newyork.craigslist.org/search/stp?format=rss
p853
sg17
g59
sg34
Nsg35
VHello there, thank you for checking out my ad. \u000aI am a 28 year old mixed race male with an interest in the/entertainment and law and law enforcement area. Currently, I working on my craft while aiming for legal and or law enforcement work. I seeking  ...
p854
stRp855
sg74
g75
((I2017
I8
I24
I3
I40
I21
I3
I236
I0
t(dtRp856
sg12
(lp857
g1
(g2
g3
(dp858
g15
Vhttp://newyork.craigslist.org/mnh/stp/6263389630.html
p859
sg17
g18
sg19
g20
stRp860
asg72
V2017-08-23T23:40:21-04:00
p861
sg23
g859
sS'rights_detail'
p862
g1
(g2
g3
(dp863
g31
Vhttps://newyork.craigslist.org/search/stp?format=rss
p864
sg17
g33
sg34
Nsg35
Vcopyright 2017 craiglist
p865
stRp866
sg132
Vhttp://newyork.craigslist.org/mnh/stp/6263389630.html
p867
sS'dc_type'
p868
Vtext
p869
sg34
Ven-us
p870
sg137
g75
((I2017
I8
I24
I3
I40
I21
I3
I236
I0
t(dtRp871
sg49
VSeeking Friend in Law and/or Law Enforcement Area - m4m
p872
sg51
g865
sg140
g854
sS'title_detail'
p873
g1
(g2
g3
(dp874
g31
Vhttps://newyork.craigslist.org/search/stp?format=rss
p875
sg17
g64
sg34
Nsg35
g872
stRp876
sg145
V2017-08-23T23:40:21-04:00
p877
stRp878
ag1
(g2
g3
(dp879
S'dc_source'
p880
Vhttp://newyork.craigslist.org/brk/stp/6277552225.html
p881
sS'summary_detail'
p882
g1
(g2
g3
(dp883
g31
Vhttps://newyork.craigslist.org/search/stp?format=rss
p884
sg17
g59
sg34
Nsg35
VCalm low key gentleman looking to trade a massage with a clean and safe man I am not a pro, but I give a good massage. I am 49, Black, 190lbs, 6ft and in shape. Please be very serious about this. Please no endless emails or solicitors. If you send a  ...
p885
stRp886
sg74
g75
((I2017
I8
I24
I3
I38
I15
I3
I236
I0
t(dtRp887
sg12
(lp888
g1
(g2
g3
(dp889
g15
Vhttp://newyork.craigslist.org/brk/stp/6277552225.html
p890
sg17
g18
sg19
g20
stRp891
asg72
V2017-08-23T23:38:15-04:00
p892
sg23
g890
sS'rights_detail'
p893
g1
(g2
g3
(dp894
g31
Vhttps://newyork.craigslist.org/search/stp?format=rss
p895
sg17
g33
sg34
Nsg35
Vcopyright 2017 craiglist
p896
stRp897
sg132
Vhttp://newyork.craigslist.org/brk/stp/6277552225.html
p898
sS'dc_type'
p899
Vtext
p900
sg34
Ven-us
p901
sg137
g75
((I2017
I8
I24
I3
I38
I15
I3
I236
I0
t(dtRp902
sg49
VMassage Exchange - m4m (Flatbush, Brooklyn)
p903
sg51
g896
sg140
g885
sS'title_detail'
p904
g1
(g2
g3
(dp905
g31
Vhttps://newyork.craigslist.org/search/stp?format=rss
p906
sg17
g64
sg34
Nsg35
g903
stRp907
sg145
V2017-08-23T23:38:15-04:00
p908
stRp909
asS'namespaces'
p910
(dp911
S''
Vhttp://purl.org/rss/1.0/
p912
sS'sy'
p913
Vhttp://purl.org/rss/1.0/modules/syndication/
p914
sVenc
p915
Vhttp://purl.oclc.org/net/rss_2.0/enc#
p916
sS'taxo'
p917
Vhttp://purl.org/rss/1.0/modules/taxonomy/
p918
sS'admin'
p919
Vhttp://webns.net/mvcb/
p920
sS'dc'
p921
Vhttp://purl.org/dc/elements/1.1/
p922
sS'content'
p923
Vhttp://purl.org/rss/1.0/modules/content/
p924
sS'rdf'
p925
Vhttp://www.w3.org/1999/02/22-rdf-syntax-ns#
p926
sS'ev'
p927
Vhttp://purl.org/rss/1.0/modules/event/
p928
sS'dcterms'
p929
Vhttp://purl.org/dc/terms/
p930
sstRp931
.