ccopy_reg
_reconstructor
p1
(cfeedparser
FeedParserDict
p2
c__builtin__
dict
p3
(dp4
S'feed'
p5
g1
(g2
g3
(dp6
S'dc_source'
p7
Vhttps://sfbay.craigslist.org/search/stp?format=rss
p8
sS'subtitle'
p9
V
sS'author'
p10
Vrobot@craigslist.org
p11
sS'links'
p12
(lp13
g1
(g2
g3
(dp14
S'href'
p15
Vhttps://sfbay.craigslist.org/search/stp
p16
sS'type'
p17
Vtext/html
p18
sS'rel'
p19
Valternate
p20
stRp21
asS'rdf_seq'
p22
V
sS'link'
p23
g16
sS'authors'
p24
(lp25
g1
(g2
g3
(dp26
S'email'
p27
g11
stRp28
asS'rights_detail'
p29
g1
(g2
g3
(dp30
S'base'
p31
Vhttps://sfbay.craigslist.org/search/stp?format=rss
p32
sg17
Vtext/plain
p33
sS'language'
p34
NsS'value'
p35
Vcopyright 2017 craiglist
p36
stRp37
sS'publisher_detail'
p38
g1
(g2
g3
(dp39
g27
Vrobot@craigslist.org
p40
stRp41
sS'author_detail'
p42
g28
sS'sy_updatebase'
p43
V2017-08-23T22:57:19-07:00
p44
sS'publisher'
p45
g40
sS'dc_type'
p46
VCollection
p47
sg34
Ven-us
p48
sS'title'
p49
Vcraigslist SF bay area | strictly platonic search
p50
sS'rights'
p51
g36
sS'rdf_li'
p52
(dp53
S'rdf:resource'
p54
Vhttp://sfbay.craigslist.org/sfc/stp/6277518253.html
p55
ssS'subtitle_detail'
p56
g1
(g2
g3
(dp57
g31
Vhttps://sfbay.craigslist.org/search/stp?format=rss
p58
sg17
Vtext/html
p59
sg34
Nsg35
V
stRp60
sS'title_detail'
p61
g1
(g2
g3
(dp62
g31
Vhttps://sfbay.craigslist.org/search/stp?format=rss
p63
sg17
Vtext/plain
p64
sg34
Nsg35
g50
stRp65
sS'sy_updateperiod'
p66
Vhourly
p67
sS'entries'
p68
V
sS'sy_updatefrequency'
p69
V6
stRp70
sS'status'
p71
I301
sS'updated'
p72
S'Thu, 24 Aug 2017 05:57:19 GMT'
p73
sS'updated_parsed'
p74
ctime
struct_time
p75
((I2017
I8
I24
I5
I57
I19
I3
I236
I0
t(dtRp76
sS'encoding'
p77
Vutf-8
p78
sS'bozo'
p79
I0
sS'headers'
p80
(dp81
S'content-length'
p82
S'5702'
p83
sS'expires'
p84
S'Thu, 24 Aug 2017 06:12:19 GMT'
p85
sS'content-encoding'
p86
S'gzip'
p87
sS'strict-transport-security'
p88
S'max-age=86400'
p89
sS'vary'
p90
S'Accept-Encoding'
p91
sS'server'
p92
S'Apache'
p93
sS'last-modified'
p94
g73
sS'cache-control'
p95
S'max-age=900, public'
p96
sS'date'
p97
S'Thu, 24 Aug 2017 05:57:19 GMT'
p98
sS'x-frame-options'
p99
S'SAMEORIGIN'
p100
sS'content-type'
p101
S'application/rss+xml; charset=utf-8'
p102
ssg15
Vhttps://sfbay.craigslist.org/search/stp?format=rss
p103
sS'version'
p104
Vrss10
p105
sg68
(lp106
g1
(g2
g3
(dp107
S'dc_source'
p108
Vhttp://sfbay.craigslist.org/pen/stp/6277593086.html
p109
sS'summary_detail'
p110
g1
(g2
g3
(dp111
g31
Vhttps://sfbay.craigslist.org/search/stp?format=rss
p112
sg17
g59
sg34
Nsg35
VTall attractive gentleman available for pro bono duty as companion \u000afor those occassions you'd really rather not attend alone. \u000aSet those wagging tongues to rest......the ones asking \u000a"How is it that she's so attractive, accomplished and kind and sti ...
p113
stRp114
sg74
g75
((I2017
I8
I24
I4
I45
I11
I3
I236
I0
t(dtRp115
sg12
(lp116
g1
(g2
g3
(dp117
g15
Vhttp://sfbay.craigslist.org/pen/stp/6277593086.html
p118
sg17
g18
sg19
g20
stRp119
asg72
V2017-08-23T21:45:11-07:00
p120
sg23
g118
sS'rights_detail'
p121
g1
(g2
g3
(dp122
g31
Vhttps://sfbay.craigslist.org/search/stp?format=rss
p123
sg17
g33
sg34
Nsg35
Vcopyright 2017 craiglist
p124
stRp125
sS'id'
p126
Vhttp://sfbay.craigslist.org/pen/stp/6277593086.html
p127
sS'dc_type'
p128
Vtext
p129
sg34
Ven-us
p130
sS'published_parsed'
p131
g75
((I2017
I8
I24
I4
I45
I11
I3
I236
I0
t(dtRp132
sg49
VEverything but the Boyfriend? - m4w
p133
sg51
g124
sS'summary'
p134
g113
sS'title_detail'
p135
g1
(g2
g3
(dp136
g31
Vhttps://sfbay.craigslist.org/search/stp?format=rss
p137
sg17
g64
sg34
Nsg35
g133
stRp138
sS'published'
p139
V2017-08-23T21:45:11-07:00
p140
stRp141
ag1
(g2
g3
(dp142
S'dc_source'
p143
Vhttp://sfbay.craigslist.org/eby/stp/6261918837.html
p144
sS'summary_detail'
p145
g1
(g2
g3
(dp146
g31
Vhttps://sfbay.craigslist.org/search/stp?format=rss
p147
sg17
g59
sg34
Nsg35
VThis CL ad post is for first come first serve but there is/are exceptions to the rule. Since I am unable to resale them I thought I would come on CL-never know, right. \u000aWhat's in it for you absolutely nothing. A face picture and/or brief descriptive  ...
p148
stRp149
sg74
g75
((I2017
I8
I24
I4
I41
I5
I3
I236
I0
t(dtRp150
sg12
(lp151
g1
(g2
g3
(dp152
g15
Vhttp://sfbay.craigslist.org/eby/stp/6261918837.html
p153
sg17
g18
sg19
g20
stRp154
asg72
V2017-08-23T21:41:05-07:00
p155
sg23
g153
sS'rights_detail'
p156
g1
(g2
g3
(dp157
g31
Vhttps://sfbay.craigslist.org/search/stp?format=rss
p158
sg17
g33
sg34
Nsg35
Vcopyright 2017 craiglist
p159
stRp160
sS'enc_enclosure'
p161
(dp162
S'resource'
p163
Vhttps://images.craigslist.org/00b0b_ixS7ygGKvRM_300x300.jpg
p164
sS'type'
p165
Vimage/jpeg
p166
ssg126
Vhttp://sfbay.craigslist.org/eby/stp/6261918837.html
p167
sS'dc_type'
p168
Vtext
p169
sg34
Ven-us
p170
sg131
g75
((I2017
I8
I24
I4
I41
I5
I3
I236
I0
t(dtRp171
sg49
VAries Spears @ Cobbs Comedy Club - m4w (Cobbs Comedy Club)
p172
sg51
g159
sg134
g148
sS'title_detail'
p173
g1
(g2
g3
(dp174
g31
Vhttps://sfbay.craigslist.org/search/stp?format=rss
p175
sg17
g64
sg34
Nsg35
g172
stRp176
sg139
V2017-08-23T21:41:05-07:00
p177
stRp178
ag1
(g2
g3
(dp179
S'dc_source'
p180
Vhttp://sfbay.craigslist.org/eby/stp/6277583491.html
p181
sS'summary_detail'
p182
g1
(g2
g3
(dp183
g31
Vhttps://sfbay.craigslist.org/search/stp?format=rss
p184
sg17
g59
sg34
Nsg35
VI've got a lot of time during the day and would like to meet some guys around my age to spend some of it with. Doesn't matter much what we do. I'm open to suggestions. Not looking for sex.
p185
stRp186
sg74
g75
((I2017
I8
I24
I4
I28
I6
I3
I236
I0
t(dtRp187
sg12
(lp188
g1
(g2
g3
(dp189
g15
Vhttp://sfbay.craigslist.org/eby/stp/6277583491.html
p190
sg17
g18
sg19
g20
stRp191
asg72
V2017-08-23T21:28:06-07:00
p192
sg23
g190
sS'rights_detail'
p193
g1
(g2
g3
(dp194
g31
Vhttps://sfbay.craigslist.org/search/stp?format=rss
p195
sg17
g33
sg34
Nsg35
Vcopyright 2017 craiglist
p196
stRp197
sg126
Vhttp://sfbay.craigslist.org/eby/stp/6277583491.html
p198
sS'dc_type'
p199
Vtext
p200
sg34
Ven-us
p201
sg131
g75
((I2017
I8
I24
I4
I28
I6
I3
I236
I0
t(dtRp202
sg49
VJust friendship - m4m (pittsburg / antioch)
p203
sg51
g196
sg134
g185
sS'title_detail'
p204
g1
(g2
g3
(dp205
g31
Vhttps://sfbay.craigslist.org/search/stp?format=rss
p206
sg17
g64
sg34
Nsg35
g203
stRp207
sg139
V2017-08-23T21:28:06-07:00
p208
stRp209
ag1
(g2
g3
(dp210
S'dc_source'
p211
Vhttp://sfbay.craigslist.org/eby/stp/6246695877.html
p212
sS'summary_detail'
p213
g1
(g2
g3
(dp214
g31
Vhttps://sfbay.craigslist.org/search/stp?format=rss
p215
sg17
g59
sg34
Nsg35
VHi there. I am a married guy looking to make some new friends. I don't have much a support system outside of my wife and family, and it would be great to have someone else to talk to. About life, common interests, parenting, the challenges of marriag ...
p216
stRp217
sg74
g75
((I2017
I8
I24
I4
I22
I34
I3
I236
I0
t(dtRp218
sg12
(lp219
g1
(g2
g3
(dp220
g15
Vhttp://sfbay.craigslist.org/eby/stp/6246695877.html
p221
sg17
g18
sg19
g20
stRp222
asg72
V2017-08-23T21:22:34-07:00
p223
sg23
g221
sS'rights_detail'
p224
g1
(g2
g3
(dp225
g31
Vhttps://sfbay.craigslist.org/search/stp?format=rss
p226
sg17
g33
sg34
Nsg35
Vcopyright 2017 craiglist
p227
stRp228
sg126
Vhttp://sfbay.craigslist.org/eby/stp/6246695877.html
p229
sS'dc_type'
p230
Vtext
p231
sg34
Ven-us
p232
sg131
g75
((I2017
I8
I24
I4
I22
I34
I3
I236
I0
t(dtRp233
sg49
VMarried looking for a married friend - m4w (oakland hills / mills)
p234
sg51
g227
sg134
g216
sS'title_detail'
p235
g1
(g2
g3
(dp236
g31
Vhttps://sfbay.craigslist.org/search/stp?format=rss
p237
sg17
g64
sg34
Nsg35
g234
stRp238
sg139
V2017-08-23T21:22:34-07:00
p239
stRp240
ag1
(g2
g3
(dp241
S'dc_source'
p242
Vhttp://sfbay.craigslist.org/sby/stp/6235429493.html
p243
sS'summary_detail'
p244
g1
(g2
g3
(dp245
g31
Vhttps://sfbay.craigslist.org/search/stp?format=rss
p246
sg17
g59
sg34
Nsg35
VChat about anything, let's see where we will reach. Cool, calm, fun Indian tech guy here. ....'''!, \u000a....!!!! \u000a!!!
p247
stRp248
sg74
g75
((I2017
I8
I24
I4
I21
I9
I3
I236
I0
t(dtRp249
sg12
(lp250
g1
(g2
g3
(dp251
g15
Vhttp://sfbay.craigslist.org/sby/stp/6235429493.html
p252
sg17
g18
sg19
g20
stRp253
asg72
V2017-08-23T21:21:09-07:00
p254
sg23
g252
sS'rights_detail'
p255
g1
(g2
g3
(dp256
g31
Vhttps://sfbay.craigslist.org/search/stp?format=rss
p257
sg17
g33
sg34
Nsg35
Vcopyright 2017 craiglist
p258
stRp259
sg126
Vhttp://sfbay.craigslist.org/sby/stp/6235429493.html
p260
sS'dc_type'
p261
Vtext
p262
sg34
Ven-us
p263
sg131
g75
((I2017
I8
I24
I4
I21
I9
I3
I236
I0
t(dtRp264
sg49
VChat - m4w (san jose south)
p265
sg51
g258
sg134
g247
sS'title_detail'
p266
g1
(g2
g3
(dp267
g31
Vhttps://sfbay.craigslist.org/search/stp?format=rss
p268
sg17
g64
sg34
Nsg35
g265
stRp269
sg139
V2017-08-23T21:21:09-07:00
p270
stRp271
ag1
(g2
g3
(dp272
S'dc_source'
p273
Vhttp://sfbay.craigslist.org/sfc/stp/6277576951.html
p274
sS'summary_detail'
p275
g1
(g2
g3
(dp276
g31
Vhttps://sfbay.craigslist.org/search/stp?format=rss
p277
sg17
g59
sg34
Nsg35
VHey guys, \u000aI was hoping to find someone to hangout with me tomorrow afternoon and evening to explore the city. I've been here before but haven't seen to much. So if you're visiting too or have lived here all your life let me know. Going to take take  ...
p278
stRp279
sg74
g75
((I2017
I8
I24
I4
I16
I56
I3
I236
I0
t(dtRp280
sg12
(lp281
g1
(g2
g3
(dp282
g15
Vhttp://sfbay.craigslist.org/sfc/stp/6277576951.html
p283
sg17
g18
sg19
g20
stRp284
asg72
V2017-08-23T21:16:56-07:00
p285
sg23
g283
sS'rights_detail'
p286
g1
(g2
g3
(dp287
g31
Vhttps://sfbay.craigslist.org/search/stp?format=rss
p288
sg17
g33
sg34
Nsg35
Vcopyright 2017 craiglist
p289
stRp290
sg126
Vhttp://sfbay.craigslist.org/sfc/stp/6277576951.html
p291
sS'dc_type'
p292
Vtext
p293
sg34
Ven-us
p294
sg131
g75
((I2017
I8
I24
I4
I16
I56
I3
I236
I0
t(dtRp295
sg49
VExplore the city Thursday - w4m (downtown / civic / van ness)
p296
sg51
g289
sg134
g278
sS'title_detail'
p297
g1
(g2
g3
(dp298
g31
Vhttps://sfbay.craigslist.org/search/stp?format=rss
p299
sg17
g64
sg34
Nsg35
g296
stRp300
sg139
V2017-08-23T21:16:56-07:00
p301
stRp302
ag1
(g2
g3
(dp303
S'dc_source'
p304
Vhttp://sfbay.craigslist.org/eby/stp/6277576694.html
p305
sS'summary_detail'
p306
g1
(g2
g3
(dp307
g31
Vhttps://sfbay.craigslist.org/search/stp?format=rss
p308
sg17
g59
sg34
Nsg35
VHi, \u000aI am in downtown Oakland grabbing a drink and looking for party friendly DTF company. I'm thinking we meet up at a bar, drink and party for a while if we click we go back to your place or we find a hotel, we drink, we party, we fuck. Pretty simp ...
p309
stRp310
sg74
g75
((I2017
I8
I24
I4
I16
I30
I3
I236
I0
t(dtRp311
sg12
(lp312
g1
(g2
g3
(dp313
g15
Vhttp://sfbay.craigslist.org/eby/stp/6277576694.html
p314
sg17
g18
sg19
g20
stRp315
asg72
V2017-08-23T21:16:30-07:00
p316
sg23
g314
sS'rights_detail'
p317
g1
(g2
g3
(dp318
g31
Vhttps://sfbay.craigslist.org/search/stp?format=rss
p319
sg17
g33
sg34
Nsg35
Vcopyright 2017 craiglist
p320
stRp321
sg126
Vhttp://sfbay.craigslist.org/eby/stp/6277576694.html
p322
sS'dc_type'
p323
Vtext
p324
sg34
Ven-us
p325
sg131
g75
((I2017
I8
I24
I4
I16
I30
I3
I236
I0
t(dtRp326
sg49
VLooking for company for drinks and.. - m4w
p327
sg51
g320
sg134
g309
sS'title_detail'
p328
g1
(g2
g3
(dp329
g31
Vhttps://sfbay.craigslist.org/search/stp?format=rss
p330
sg17
g64
sg34
Nsg35
g327
stRp331
sg139
V2017-08-23T21:16:30-07:00
p332
stRp333
ag1
(g2
g3
(dp334
S'dc_source'
p335
Vhttp://sfbay.craigslist.org/sby/stp/6277568666.html
p336
sS'summary_detail'
p337
g1
(g2
g3
(dp338
g31
Vhttps://sfbay.craigslist.org/search/stp?format=rss
p339
sg17
g59
sg34
Nsg35
VGood evening, everyone! My plans got cancelled, so I'm bored. Would like the evening to involve alcohol &amp; a cool guy. I'm 43, 5'8, 130, reddish-blonde hair, blue eyes. If interested, tell me a bit about yourself, what kind of alcohol, &amp; we ca ...
p340
stRp341
sg74
g75
((I2017
I8
I24
I4
I3
I19
I3
I236
I0
t(dtRp342
sg12
(lp343
g1
(g2
g3
(dp344
g15
Vhttp://sfbay.craigslist.org/sby/stp/6277568666.html
p345
sg17
g18
sg19
g20
stRp346
asg72
V2017-08-23T21:03:19-07:00
p347
sg23
g345
sS'rights_detail'
p348
g1
(g2
g3
(dp349
g31
Vhttps://sfbay.craigslist.org/search/stp?format=rss
p350
sg17
g33
sg34
Nsg35
Vcopyright 2017 craiglist
p351
stRp352
sg126
Vhttp://sfbay.craigslist.org/sby/stp/6277568666.html
p353
sS'dc_type'
p354
Vtext
p355
sg34
Ven-us
p356
sg131
g75
((I2017
I8
I24
I4
I3
I19
I3
I236
I0
t(dtRp357
sg49
VWhat to do on a Saturday night??? - w4m (san jose south)
p358
sg51
g351
sg134
g340
sS'title_detail'
p359
g1
(g2
g3
(dp360
g31
Vhttps://sfbay.craigslist.org/search/stp?format=rss
p361
sg17
g64
sg34
Nsg35
g358
stRp362
sg139
V2017-08-23T21:03:19-07:00
p363
stRp364
ag1
(g2
g3
(dp365
S'dc_source'
p366
Vhttp://sfbay.craigslist.org/eby/stp/6277564102.html
p367
sS'summary_detail'
p368
g1
(g2
g3
(dp369
g31
Vhttps://sfbay.craigslist.org/search/stp?format=rss
p370
sg17
g59
sg34
Nsg35
VI'm going to the expo from Fremont to Santa Rosa and would enjoy some company during the drive. If you are attending or thought about it and don't want to make that drive alone, I'm happy to drive and have some company along with the carpool lane! I  ...
p371
stRp372
sg74
g75
((I2017
I8
I24
I3
I56
I19
I3
I236
I0
t(dtRp373
sg12
(lp374
g1
(g2
g3
(dp375
g15
Vhttp://sfbay.craigslist.org/eby/stp/6277564102.html
p376
sg17
g18
sg19
g20
stRp377
asg72
V2017-08-23T20:56:19-07:00
p378
sg23
g376
sS'rights_detail'
p379
g1
(g2
g3
(dp380
g31
Vhttps://sfbay.craigslist.org/search/stp?format=rss
p381
sg17
g33
sg34
Nsg35
Vcopyright 2017 craiglist
p382
stRp383
sg126
Vhttp://sfbay.craigslist.org/eby/stp/6277564102.html
p384
sS'dc_type'
p385
Vtext
p386
sg34
Ven-us
p387
sg131
g75
((I2017
I8
I24
I3
I56
I19
I3
I236
I0
t(dtRp388
sg49
VSanta Rosa Heirloom Expo - m4w (fremont / union city / newark)
p389
sg51
g382
sg134
g371
sS'title_detail'
p390
g1
(g2
g3
(dp391
g31
Vhttps://sfbay.craigslist.org/search/stp?format=rss
p392
sg17
g64
sg34
Nsg35
g389
stRp393
sg139
V2017-08-23T20:56:19-07:00
p394
stRp395
ag1
(g2
g3
(dp396
S'dc_source'
p397
Vhttp://sfbay.craigslist.org/sby/stp/6265997585.html
p398
sS'summary_detail'
p399
g1
(g2
g3
(dp400
g31
Vhttps://sfbay.craigslist.org/search/stp?format=rss
p401
sg17
g59
sg34
Nsg35
VNovice nudist interested in meeting older folks that have a similar interest. I'd like to find someone interested in meet for lunch of afternoon coffee to chat and later if comfortable spending some naked time together. I'm a clean healthy profession ...
p402
stRp403
sg74
g75
((I2017
I8
I24
I3
I35
I38
I3
I236
I0
t(dtRp404
sg12
(lp405
g1
(g2
g3
(dp406
g15
Vhttp://sfbay.craigslist.org/sby/stp/6265997585.html
p407
sg17
g18
sg19
g20
stRp408
asg72
V2017-08-23T20:35:38-07:00
p409
sg23
g407
sS'rights_detail'
p410
g1
(g2
g3
(dp411
g31
Vhttps://sfbay.craigslist.org/search/stp?format=rss
p412
sg17
g33
sg34
Nsg35
Vcopyright 2017 craiglist
p413
stRp414
sg126
Vhttp://sfbay.craigslist.org/sby/stp/6265997585.html
p415
sS'dc_type'
p416
Vtext
p417
sg34
Ven-us
p418
sg131
g75
((I2017
I8
I24
I3
I35
I38
I3
I236
I0
t(dtRp419
sg49
VLooking for an older coupe - m4mw (sunnyvale)
p420
sg51
g413
sg134
g402
sS'title_detail'
p421
g1
(g2
g3
(dp422
g31
Vhttps://sfbay.craigslist.org/search/stp?format=rss
p423
sg17
g64
sg34
Nsg35
g420
stRp424
sg139
V2017-08-23T20:35:38-07:00
p425
stRp426
ag1
(g2
g3
(dp427
S'dc_source'
p428
Vhttp://sfbay.craigslist.org/nby/stp/6243556738.html
p429
sS'summary_detail'
p430
g1
(g2
g3
(dp431
g31
Vhttps://sfbay.craigslist.org/search/stp?format=rss
p432
sg17
g59
sg34
Nsg35
VLooking to get some hours of massage..Let me massage your tired body and relax your mind and body.. \u000aI enjoy giving massages and seeing the smile when complete..this is all free,,just looking to get some hours of exper.
p433
stRp434
sg74
g75
((I2017
I8
I24
I3
I35
I4
I3
I236
I0
t(dtRp435
sg12
(lp436
g1
(g2
g3
(dp437
g15
Vhttp://sfbay.craigslist.org/nby/stp/6243556738.html
p438
sg17
g18
sg19
g20
stRp439
asg72
V2017-08-23T20:35:04-07:00
p440
sg23
g438
sS'rights_detail'
p441
g1
(g2
g3
(dp442
g31
Vhttps://sfbay.craigslist.org/search/stp?format=rss
p443
sg17
g33
sg34
Nsg35
Vcopyright 2017 craiglist
p444
stRp445
sg126
Vhttp://sfbay.craigslist.org/nby/stp/6243556738.html
p446
sS'dc_type'
p447
Vtext
p448
sg34
Ven-us
p449
sg131
g75
((I2017
I8
I24
I3
I35
I4
I3
I236
I0
t(dtRp450
sg49
Vmassage hours-- - m4w
p451
sg51
g444
sg134
g433
sS'title_detail'
p452
g1
(g2
g3
(dp453
g31
Vhttps://sfbay.craigslist.org/search/stp?format=rss
p454
sg17
g64
sg34
Nsg35
g451
stRp455
sg139
V2017-08-23T20:35:04-07:00
p456
stRp457
ag1
(g2
g3
(dp458
S'dc_source'
p459
Vhttp://sfbay.craigslist.org/eby/stp/6247636409.html
p460
sS'summary_detail'
p461
g1
(g2
g3
(dp462
g31
Vhttps://sfbay.craigslist.org/search/stp?format=rss
p463
sg17
g59
sg34
Nsg35
VBBW are what a womans body become from having such a big kind heart of gold, \u000aCurves are what makes massage fun and exciting, I enjoy giving massages to BBW. \u000aif your interested give me a buzz.
p464
stRp465
sg74
g75
((I2017
I8
I24
I3
I34
I54
I3
I236
I0
t(dtRp466
sg12
(lp467
g1
(g2
g3
(dp468
g15
Vhttp://sfbay.craigslist.org/eby/stp/6247636409.html
p469
sg17
g18
sg19
g20
stRp470
asg72
V2017-08-23T20:34:54-07:00
p471
sg23
g469
sS'rights_detail'
p472
g1
(g2
g3
(dp473
g31
Vhttps://sfbay.craigslist.org/search/stp?format=rss
p474
sg17
g33
sg34
Nsg35
Vcopyright 2017 craiglist
p475
stRp476
sS'enc_enclosure'
p477
(dp478
S'resource'
p479
Vhttps://images.craigslist.org/00M0M_bZn66gLkds2_300x300.jpg
p480
sS'type'
p481
Vimage/jpeg
p482
ssg126
Vhttp://sfbay.craigslist.org/eby/stp/6247636409.html
p483
sS'dc_type'
p484
Vtext
p485
sg34
Ven-us
p486
sg131
g75
((I2017
I8
I24
I3
I34
I54
I3
I236
I0
t(dtRp487
sg49
VMassage 4 bbw and friends.. - m4w (fairfield / vacaville)
p488
sg51
g475
sg134
g464
sS'title_detail'
p489
g1
(g2
g3
(dp490
g31
Vhttps://sfbay.craigslist.org/search/stp?format=rss
p491
sg17
g64
sg34
Nsg35
g488
stRp492
sg139
V2017-08-23T20:34:54-07:00
p493
stRp494
ag1
(g2
g3
(dp495
S'dc_source'
p496
Vhttp://sfbay.craigslist.org/scz/stp/6277538323.html
p497
sS'summary_detail'
p498
g1
(g2
g3
(dp499
g31
Vhttps://sfbay.craigslist.org/search/stp?format=rss
p500
sg17
g59
sg34
Nsg35
VTravel and experience as much life as you can while leading a passionate career and lifestyle. Nonetheless value family and meet all people with open arms - those are the values I live by and I have searched high and low to find someone who meets the ...
p501
stRp502
sg74
g75
((I2017
I8
I24
I3
I32
I43
I3
I236
I0
t(dtRp503
sg12
(lp504
g1
(g2
g3
(dp505
g15
Vhttp://sfbay.craigslist.org/scz/stp/6277538323.html
p506
sg17
g18
sg19
g20
stRp507
asg72
V2017-08-23T20:32:43-07:00
p508
sg23
g506
sS'rights_detail'
p509
g1
(g2
g3
(dp510
g31
Vhttps://sfbay.craigslist.org/search/stp?format=rss
p511
sg17
g33
sg34
Nsg35
Vcopyright 2017 craiglist
p512
stRp513
sg126
Vhttp://sfbay.craigslist.org/scz/stp/6277538323.html
p514
sS'dc_type'
p515
Vtext
p516
sg34
Ven-us
p517
sg131
g75
((I2017
I8
I24
I3
I32
I43
I3
I236
I0
t(dtRp518
sg49
VLooking for an outdoorsy dudette! - m4w (santa cruz)
p519
sg51
g512
sg134
g501
sS'title_detail'
p520
g1
(g2
g3
(dp521
g31
Vhttps://sfbay.craigslist.org/search/stp?format=rss
p522
sg17
g64
sg34
Nsg35
g519
stRp523
sg139
V2017-08-23T20:32:43-07:00
p524
stRp525
ag1
(g2
g3
(dp526
S'dc_source'
p527
Vhttp://sfbay.craigslist.org/sfc/stp/6277546445.html
p528
sS'summary_detail'
p529
g1
(g2
g3
(dp530
g31
Vhttps://sfbay.craigslist.org/search/stp?format=rss
p531
sg17
g59
sg34
Nsg35
VI am subletting my studio while I am gone for Burning Man. The studio is a luxury studio in a building near AT&amp;T Park. It has gym, swimming pool, jacuzzi and gorgeous rooftop view. The cost is $900 for all 10 nights. If you need to stay for more  ...
p532
stRp533
sg74
g75
((I2017
I8
I24
I3
I30
I2
I3
I236
I0
t(dtRp534
sg12
(lp535
g1
(g2
g3
(dp536
g15
Vhttp://sfbay.craigslist.org/sfc/stp/6277546445.html
p537
sg17
g18
sg19
g20
stRp538
asg72
V2017-08-23T20:30:02-07:00
p539
sg23
g537
sS'rights_detail'
p540
g1
(g2
g3
(dp541
g31
Vhttps://sfbay.craigslist.org/search/stp?format=rss
p542
sg17
g33
sg34
Nsg35
Vcopyright 2017 craiglist
p543
stRp544
sg126
Vhttp://sfbay.craigslist.org/sfc/stp/6277546445.html
p545
sS'dc_type'
p546
Vtext
p547
sg34
Ven-us
p548
sg131
g75
((I2017
I8
I24
I3
I30
I2
I3
I236
I0
t(dtRp549
sg49
VSOMA Luxury Studio Available for 10 Nights Aug 26 - Sept 5 Burning Man - m4m (SOMA / south beach)
p550
sg51
g543
sg134
g532
sS'title_detail'
p551
g1
(g2
g3
(dp552
g31
Vhttps://sfbay.craigslist.org/search/stp?format=rss
p553
sg17
g64
sg34
Nsg35
g550
stRp554
sg139
V2017-08-23T20:30:02-07:00
p555
stRp556
ag1
(g2
g3
(dp557
S'dc_source'
p558
Vhttp://sfbay.craigslist.org/eby/stp/6271786591.html
p559
sS'summary_detail'
p560
g1
(g2
g3
(dp561
g31
Vhttps://sfbay.craigslist.org/search/stp?format=rss
p562
sg17
g59
sg34
Nsg35
VI am a husband and father who enjoys receiving massage. I admire and value the sacred space created by practitioners, to heal the body and quiet the mind. Bodywork has proven integral to my well being, as both a pleasant and practical form of facilit ...
p563
stRp564
sg74
g75
((I2017
I8
I24
I3
I26
I37
I3
I236
I0
t(dtRp565
sg12
(lp566
g1
(g2
g3
(dp567
g15
Vhttp://sfbay.craigslist.org/eby/stp/6271786591.html
p568
sg17
g18
sg19
g20
stRp569
asg72
V2017-08-23T20:26:37-07:00
p570
sg23
g568
sS'rights_detail'
p571
g1
(g2
g3
(dp572
g31
Vhttps://sfbay.craigslist.org/search/stp?format=rss
p573
sg17
g33
sg34
Nsg35
Vcopyright 2017 craiglist
p574
stRp575
sS'enc_enclosure'
p576
(dp577
S'resource'
p578
Vhttps://images.craigslist.org/00X0X_jSTrjYO2dxj_300x300.jpg
p579
sS'type'
p580
Vimage/jpeg
p581
ssg126
Vhttp://sfbay.craigslist.org/eby/stp/6271786591.html
p582
sS'dc_type'
p583
Vtext
p584
sg34
Ven-us
p585
sg131
g75
((I2017
I8
I24
I3
I26
I37
I3
I236
I0
t(dtRp586
sg49
VAttentive Attention - m4w (oakland lake merritt / grand)
p587
sg51
g574
sg134
g563
sS'title_detail'
p588
g1
(g2
g3
(dp589
g31
Vhttps://sfbay.craigslist.org/search/stp?format=rss
p590
sg17
g64
sg34
Nsg35
g587
stRp591
sg139
V2017-08-23T20:26:37-07:00
p592
stRp593
ag1
(g2
g3
(dp594
S'dc_source'
p595
Vhttp://sfbay.craigslist.org/sfc/stp/6268228178.html
p596
sS'summary_detail'
p597
g1
(g2
g3
(dp598
g31
Vhttps://sfbay.craigslist.org/search/stp?format=rss
p599
sg17
g59
sg34
Nsg35
VYes, you read it right! \u000aI'm offering a FREE mobile massage therapy all around the Bay Area :) \u000aAlthough I'm not a CMT, I definitely have lots of experience. \u000aI'm coming to you with: \u000a- Professional massage table \u000a- Clean sheets \u000a- Oil, lotion, and c ...
p600
stRp601
sg74
g75
((I2017
I8
I24
I3
I19
I8
I3
I236
I0
t(dtRp602
sg12
(lp603
g1
(g2
g3
(dp604
g15
Vhttp://sfbay.craigslist.org/sfc/stp/6268228178.html
p605
sg17
g18
sg19
g20
stRp606
asg72
V2017-08-23T20:19:08-07:00
p607
sg23
g605
sS'rights_detail'
p608
g1
(g2
g3
(dp609
g31
Vhttps://sfbay.craigslist.org/search/stp?format=rss
p610
sg17
g33
sg34
Nsg35
Vcopyright 2017 craiglist
p611
stRp612
sS'enc_enclosure'
p613
(dp614
S'resource'
p615
Vhttps://images.craigslist.org/01717_lmw5sFekDm6_300x300.jpg
p616
sS'type'
p617
Vimage/jpeg
p618
ssg126
Vhttp://sfbay.craigslist.org/sfc/stp/6268228178.html
p619
sS'dc_type'
p620
Vtext
p621
sg34
Ven-us
p622
sg131
g75
((I2017
I8
I24
I3
I19
I8
I3
I236
I0
t(dtRp623
sg49
VMobile (FREE!) Massage - all around the Bay Area - m4w
p624
sg51
g611
sg134
g600
sS'title_detail'
p625
g1
(g2
g3
(dp626
g31
Vhttps://sfbay.craigslist.org/search/stp?format=rss
p627
sg17
g64
sg34
Nsg35
g624
stRp628
sg139
V2017-08-23T20:19:08-07:00
p629
stRp630
ag1
(g2
g3
(dp631
S'dc_source'
p632
Vhttp://sfbay.craigslist.org/eby/stp/6274473109.html
p633
sS'summary_detail'
p634
g1
(g2
g3
(dp635
g31
Vhttps://sfbay.craigslist.org/search/stp?format=rss
p636
sg17
g59
sg34
Nsg35
VHey all! \u000aI'm new to the area, moved here recently for work. \u000aI'm fit, successful, nice, normal, into sports, running, \u000aI am good looking! \u000aJust a little bored :) \u000aThat's why I am, I'm looking for one cute fit Caucasian girl for spoiling and hang out ...
p637
stRp638
sg74
g75
((I2017
I8
I24
I3
I18
I40
I3
I236
I0
t(dtRp639
sg12
(lp640
g1
(g2
g3
(dp641
g15
Vhttp://sfbay.craigslist.org/eby/stp/6274473109.html
p642
sg17
g18
sg19
g20
stRp643
asg72
V2017-08-23T20:18:40-07:00
p644
sg23
g642
sS'rights_detail'
p645
g1
(g2
g3
(dp646
g31
Vhttps://sfbay.craigslist.org/search/stp?format=rss
p647
sg17
g33
sg34
Nsg35
Vcopyright 2017 craiglist
p648
stRp649
sS'enc_enclosure'
p650
(dp651
S'resource'
p652
Vhttps://images.craigslist.org/00i0i_8vcVJkqF6BE_300x300.jpg
p653
sS'type'
p654
Vimage/jpeg
p655
ssg126
Vhttp://sfbay.craigslist.org/eby/stp/6274473109.html
p656
sS'dc_type'
p657
Vtext
p658
sg34
Ven-us
p659
sg131
g75
((I2017
I8
I24
I3
I18
I40
I3
I236
I0
t(dtRp660
sg49
VLooking to Spoil Caucasian girl from Martinez/Concord area :) - m4w (concord / pleasant hill / martinez)
p661
sg51
g648
sg134
g637
sS'title_detail'
p662
g1
(g2
g3
(dp663
g31
Vhttps://sfbay.craigslist.org/search/stp?format=rss
p664
sg17
g64
sg34
Nsg35
g661
stRp665
sg139
V2017-08-23T20:18:40-07:00
p666
stRp667
ag1
(g2
g3
(dp668
S'dc_source'
p669
Vhttp://sfbay.craigslist.org/nby/stp/6261204166.html
p670
sS'summary_detail'
p671
g1
(g2
g3
(dp672
g31
Vhttps://sfbay.craigslist.org/search/stp?format=rss
p673
sg17
g59
sg34
Nsg35
VHello,I just moved to area this week and looking for new friends, I'm 35 years old professional male work in the medical field. Looking for a friend to talk to and hangout with. \u000aI like movies, hiking, fishing, playing soccer and pool.
p674
stRp675
sg74
g75
((I2017
I8
I24
I3
I17
I34
I3
I236
I0
t(dtRp676
sg12
(lp677
g1
(g2
g3
(dp678
g15
Vhttp://sfbay.craigslist.org/nby/stp/6261204166.html
p679
sg17
g18
sg19
g20
stRp680
asg72
V2017-08-23T20:17:34-07:00
p681
sg23
g679
sS'rights_detail'
p682
g1
(g2
g3
(dp683
g31
Vhttps://sfbay.craigslist.org/search/stp?format=rss
p684
sg17
g33
sg34
Nsg35
Vcopyright 2017 craiglist
p685
stRp686
sg126
Vhttp://sfbay.craigslist.org/nby/stp/6261204166.html
p687
sS'dc_type'
p688
Vtext
p689
sg34
Ven-us
p690
sg131
g75
((I2017
I8
I24
I3
I17
I34
I3
I236
I0
t(dtRp691
sg49
VLooking for a friend. - m4w (larkspur)
p692
sg51
g685
sg134
g674
sS'title_detail'
p693
g1
(g2
g3
(dp694
g31
Vhttps://sfbay.craigslist.org/search/stp?format=rss
p695
sg17
g64
sg34
Nsg35
g692
stRp696
sg139
V2017-08-23T20:17:34-07:00
p697
stRp698
ag1
(g2
g3
(dp699
S'dc_source'
p700
Vhttp://sfbay.craigslist.org/eby/stp/6277536019.html
p701
sS'summary_detail'
p702
g1
(g2
g3
(dp703
g31
Vhttps://sfbay.craigslist.org/search/stp?format=rss
p704
sg17
g59
sg34
Nsg35
VHey there! \u000aI really like the idea of a fun romantic night / weekend with a much older mature lady :) \u000aIn the menu: \u000a* Romantic dinner (cook in or dine out) \u000a* Champagne / wine \u000a* A short walk in the park \u000a* Lots of smiles :) \u000a* Lots of cuddling and  ...
p705
stRp706
sg74
g75
((I2017
I8
I24
I3
I15
I37
I3
I236
I0
t(dtRp707
sg12
(lp708
g1
(g2
g3
(dp709
g15
Vhttp://sfbay.craigslist.org/eby/stp/6277536019.html
p710
sg17
g18
sg19
g20
stRp711
asg72
V2017-08-23T20:15:37-07:00
p712
sg23
g710
sS'rights_detail'
p713
g1
(g2
g3
(dp714
g31
Vhttps://sfbay.craigslist.org/search/stp?format=rss
p715
sg17
g33
sg34
Nsg35
Vcopyright 2017 craiglist
p716
stRp717
sS'enc_enclosure'
p718
(dp719
S'resource'
p720
Vhttps://images.craigslist.org/00U0U_dTlOkGSZvWQ_300x300.jpg
p721
sS'type'
p722
Vimage/jpeg
p723
ssg126
Vhttp://sfbay.craigslist.org/eby/stp/6277536019.html
p724
sS'dc_type'
p725
Vtext
p726
sg34
Ven-us
p727
sg131
g75
((I2017
I8
I24
I3
I15
I37
I3
I236
I0
t(dtRp728
sg49
VRomantic Fun weekend / Younger Man for Older :) - m4w
p729
sg51
g716
sg134
g705
sS'title_detail'
p730
g1
(g2
g3
(dp731
g31
Vhttps://sfbay.craigslist.org/search/stp?format=rss
p732
sg17
g64
sg34
Nsg35
g729
stRp733
sg139
V2017-08-23T20:15:37-07:00
p734
stRp735
ag1
(g2
g3
(dp736
S'dc_source'
p737
Vhttp://sfbay.craigslist.org/nby/stp/6270496955.html
p738
sS'summary_detail'
p739
g1
(g2
g3
(dp740
g31
Vhttps://sfbay.craigslist.org/search/stp?format=rss
p741
sg17
g59
sg34
Nsg35
VAre you looking for a partner to share hikes around the Bay Area? I enjoy all types of hikes and I am a reliable, responsible , resourceful man. I like coastal and mountain trails. Adventurous road trips around the state are fun with a good partner , ...
p742
stRp743
sg74
g75
((I2017
I8
I24
I3
I9
I57
I3
I236
I0
t(dtRp744
sg12
(lp745
g1
(g2
g3
(dp746
g15
Vhttp://sfbay.craigslist.org/nby/stp/6270496955.html
p747
sg17
g18
sg19
g20
stRp748
asg72
V2017-08-23T20:09:57-07:00
p749
sg23
g747
sS'rights_detail'
p750
g1
(g2
g3
(dp751
g31
Vhttps://sfbay.craigslist.org/search/stp?format=rss
p752
sg17
g33
sg34
Nsg35
Vcopyright 2017 craiglist
p753
stRp754
sg126
Vhttp://sfbay.craigslist.org/nby/stp/6270496955.html
p755
sS'dc_type'
p756
Vtext
p757
sg34
Ven-us
p758
sg131
g75
((I2017
I8
I24
I3
I9
I57
I3
I236
I0
t(dtRp759
sg49
VLooking for an outdoor activity partner - m4w (SF/Marin)
p760
sg51
g753
sg134
g742
sS'title_detail'
p761
g1
(g2
g3
(dp762
g31
Vhttps://sfbay.craigslist.org/search/stp?format=rss
p763
sg17
g64
sg34
Nsg35
g760
stRp764
sg139
V2017-08-23T20:09:57-07:00
p765
stRp766
ag1
(g2
g3
(dp767
S'dc_source'
p768
Vhttp://sfbay.craigslist.org/sfc/stp/6277531571.html
p769
sS'summary_detail'
p770
g1
(g2
g3
(dp771
g31
Vhttps://sfbay.craigslist.org/search/stp?format=rss
p772
sg17
g59
sg34
Nsg35
VI have to be spent on by midnight. I figure that leaves enough time to get good and fucked and suck and kisses and caressed and appreciated for just one night. I like old men, big men, well hung men, and I I'll do anything reasonableGetting off at 16 ...
p773
stRp774
sg74
g75
((I2017
I8
I24
I3
I9
I38
I3
I236
I0
t(dtRp775
sg12
(lp776
g1
(g2
g3
(dp777
g15
Vhttp://sfbay.craigslist.org/sfc/stp/6277531571.html
p778
sg17
g18
sg19
g20
stRp779
asg72
V2017-08-23T20:09:38-07:00
p780
sg23
g778
sS'rights_detail'
p781
g1
(g2
g3
(dp782
g31
Vhttps://sfbay.craigslist.org/search/stp?format=rss
p783
sg17
g33
sg34
Nsg35
Vcopyright 2017 craiglist
p784
stRp785
sS'enc_enclosure'
p786
(dp787
S'resource'
p788
Vhttps://images.craigslist.org/00w0w_d3X4bR1qPsy_300x300.jpg
p789
sS'type'
p790
Vimage/jpeg
p791
ssg126
Vhttp://sfbay.craigslist.org/sfc/stp/6277531571.html
p792
sS'dc_type'
p793
Vtext
p794
sg34
Ven-us
p795
sg131
g75
((I2017
I8
I24
I3
I9
I38
I3
I236
I0
t(dtRp796
sg49
VBottom on way to work seeks too for a quickie - m4m (Along the Bart or subway trax)
p797
sg51
g784
sg134
g773
sS'title_detail'
p798
g1
(g2
g3
(dp799
g31
Vhttps://sfbay.craigslist.org/search/stp?format=rss
p800
sg17
g64
sg34
Nsg35
g797
stRp801
sg139
V2017-08-23T20:09:38-07:00
p802
stRp803
ag1
(g2
g3
(dp804
S'dc_source'
p805
Vhttp://sfbay.craigslist.org/pen/stp/6266336624.html
p806
sS'summary_detail'
p807
g1
(g2
g3
(dp808
g31
Vhttps://sfbay.craigslist.org/search/stp?format=rss
p809
sg17
g59
sg34
Nsg35
VWould you like to chat superficially or even converse in a more in depth way about the vicissitudes of life or a recent fun trip? \u000aFeeling isolated even though you are a kind and well-adjusted human being? SINGLE too? 59 to 67 y o?Not looking for fwb ...
p810
stRp811
sg74
g75
((I2017
I8
I24
I3
I6
I5
I3
I236
I0
t(dtRp812
sg12
(lp813
g1
(g2
g3
(dp814
g15
Vhttp://sfbay.craigslist.org/pen/stp/6266336624.html
p815
sg17
g18
sg19
g20
stRp816
asg72
V2017-08-23T20:06:05-07:00
p817
sg23
g815
sS'rights_detail'
p818
g1
(g2
g3
(dp819
g31
Vhttps://sfbay.craigslist.org/search/stp?format=rss
p820
sg17
g33
sg34
Nsg35
Vcopyright 2017 craiglist
p821
stRp822
sS'enc_enclosure'
p823
(dp824
S'resource'
p825
Vhttps://images.craigslist.org/00b0b_4DwbWdJaLKn_300x300.jpg
p826
sS'type'
p827
Vimage/jpeg
p828
ssg126
Vhttp://sfbay.craigslist.org/pen/stp/6266336624.html
p829
sS'dc_type'
p830
Vtext
p831
sg34
Ven-us
p832
sg131
g75
((I2017
I8
I24
I3
I6
I5
I3
I236
I0
t(dtRp833
sg49
VWant to just talk ? - w4m (Menlo Park)
p834
sg51
g821
sg134
g810
sS'title_detail'
p835
g1
(g2
g3
(dp836
g31
Vhttps://sfbay.craigslist.org/search/stp?format=rss
p837
sg17
g64
sg34
Nsg35
g834
stRp838
sg139
V2017-08-23T20:06:05-07:00
p839
stRp840
ag1
(g2
g3
(dp841
S'dc_source'
p842
Vhttp://sfbay.craigslist.org/eby/stp/6277522038.html
p843
sS'summary_detail'
p844
g1
(g2
g3
(dp845
g31
Vhttps://sfbay.craigslist.org/search/stp?format=rss
p846
sg17
g59
sg34
Nsg35
VBeen divorced 2 years now . Dated a bunch and had a good time. Taking a break from it all to decide whats next . The one thing i miss more then sex is i miss the physical connection with another person. I really do miss spooning and cuddleing in bed  ...
p847
stRp848
sg74
g75
((I2017
I8
I24
I2
I57
I5
I3
I236
I0
t(dtRp849
sg12
(lp850
g1
(g2
g3
(dp851
g15
Vhttp://sfbay.craigslist.org/eby/stp/6277522038.html
p852
sg17
g18
sg19
g20
stRp853
asg72
V2017-08-23T19:57:05-07:00
p854
sg23
g852
sS'rights_detail'
p855
g1
(g2
g3
(dp856
g31
Vhttps://sfbay.craigslist.org/search/stp?format=rss
p857
sg17
g33
sg34
Nsg35
Vcopyright 2017 craiglist
p858
stRp859
sg126
Vhttp://sfbay.craigslist.org/eby/stp/6277522038.html
p860
sS'dc_type'
p861
Vtext
p862
sg34
Ven-us
p863
sg131
g75
((I2017
I8
I24
I2
I57
I5
I3
I236
I0
t(dtRp864
sg49
VI miss spooning - m4w (albany / el cerrito)
p865
sg51
g858
sg134
g847
sS'title_detail'
p866
g1
(g2
g3
(dp867
g31
Vhttps://sfbay.craigslist.org/search/stp?format=rss
p868
sg17
g64
sg34
Nsg35
g865
stRp869
sg139
V2017-08-23T19:57:05-07:00
p870
stRp871
ag1
(g2
g3
(dp872
S'dc_source'
p873
Vhttp://sfbay.craigslist.org/sfc/stp/6277518582.html
p874
sS'summary_detail'
p875
g1
(g2
g3
(dp876
g31
Vhttps://sfbay.craigslist.org/search/stp?format=rss
p877
sg17
g59
sg34
Nsg35
VHi I am looking for a coffee/lunch mate in financial district that I can practice my conversational english. I am chinese and English is my secondary language. I hope I can have a friend to practice English and at the same time becoming friends. You  ...
p878
stRp879
sg74
g75
((I2017
I8
I24
I2
I52
I40
I3
I236
I0
t(dtRp880
sg12
(lp881
g1
(g2
g3
(dp882
g15
Vhttp://sfbay.craigslist.org/sfc/stp/6277518582.html
p883
sg17
g18
sg19
g20
stRp884
asg72
V2017-08-23T19:52:40-07:00
p885
sg23
g883
sS'rights_detail'
p886
g1
(g2
g3
(dp887
g31
Vhttps://sfbay.craigslist.org/search/stp?format=rss
p888
sg17
g33
sg34
Nsg35
Vcopyright 2017 craiglist
p889
stRp890
sg126
Vhttp://sfbay.craigslist.org/sfc/stp/6277518582.html
p891
sS'dc_type'
p892
Vtext
p893
sg34
Ven-us
p894
sg131
g75
((I2017
I8
I24
I2
I52
I40
I3
I236
I0
t(dtRp895
sg49
VLooking for a Lunch Mate in SF for conversation - m4w (financial district)
p896
sg51
g889
sg134
g878
sS'title_detail'
p897
g1
(g2
g3
(dp898
g31
Vhttps://sfbay.craigslist.org/search/stp?format=rss
p899
sg17
g64
sg34
Nsg35
g896
stRp900
sg139
V2017-08-23T19:52:40-07:00
p901
stRp902
ag1
(g2
g3
(dp903
S'dc_source'
p904
Vhttp://sfbay.craigslist.org/sfc/stp/6277518253.html
p905
sS'summary_detail'
p906
g1
(g2
g3
(dp907
g31
Vhttps://sfbay.craigslist.org/search/stp?format=rss
p908
sg17
g59
sg34
Nsg35
VI am Asian, married, decent looking, financially independent. I am searching for someone to chat about life. I like to share thoughts, feelings about things. I am educated, professional, cheerful and down to earth. Physically, I look fine. I enjoy he ...
p909
stRp910
sg74
g75
((I2017
I8
I24
I2
I52
I13
I3
I236
I0
t(dtRp911
sg12
(lp912
g1
(g2
g3
(dp913
g15
Vhttp://sfbay.craigslist.org/sfc/stp/6277518253.html
p914
sg17
g18
sg19
g20
stRp915
asg72
V2017-08-23T19:52:13-07:00
p916
sg23
g914
sS'rights_detail'
p917
g1
(g2
g3
(dp918
g31
Vhttps://sfbay.craigslist.org/search/stp?format=rss
p919
sg17
g33
sg34
Nsg35
Vcopyright 2017 craiglist
p920
stRp921
sg126
Vhttp://sfbay.craigslist.org/sfc/stp/6277518253.html
p922
sS'dc_type'
p923
Vtext
p924
sg34
Ven-us
p925
sg131
g75
((I2017
I8
I24
I2
I52
I13
I3
I236
I0
t(dtRp926
sg49
VMarried and looking for a friend - m4w (financial district)
p927
sg51
g920
sg134
g909
sS'title_detail'
p928
g1
(g2
g3
(dp929
g31
Vhttps://sfbay.craigslist.org/search/stp?format=rss
p930
sg17
g64
sg34
Nsg35
g927
stRp931
sg139
V2017-08-23T19:52:13-07:00
p932
stRp933
asS'namespaces'
p934
(dp935
S''
Vhttp://purl.org/rss/1.0/
p936
sS'sy'
p937
Vhttp://purl.org/rss/1.0/modules/syndication/
p938
sVenc
p939
Vhttp://purl.oclc.org/net/rss_2.0/enc#
p940
sS'taxo'
p941
Vhttp://purl.org/rss/1.0/modules/taxonomy/
p942
sS'admin'
p943
Vhttp://webns.net/mvcb/
p944
sS'dc'
p945
Vhttp://purl.org/dc/elements/1.1/
p946
sS'content'
p947
Vhttp://purl.org/rss/1.0/modules/content/
p948
sS'rdf'
p949
Vhttp://www.w3.org/1999/02/22-rdf-syntax-ns#
p950
sS'ev'
p951
Vhttp://purl.org/rss/1.0/modules/event/
p952
sS'dcterms'
p953
Vhttp://purl.org/dc/terms/
p954
sstRp955
.